0	C038284	Roman Telugu	Hate Speech	idedo jalim lotion
1	C038286	Roman Telugu	Hate Speech	Mari aa sangathi thelisi antha madham yendhukura niku.... Vaaru garu antunnaav....gnanodhayamyndhi koddhiga....
2	C038288	Tanglish	Offensive	Entha piano music ka yerkanave ketruken....enga veetula eruka musicbox la entha music than varum
3	C038289	Tanglish	Offensive	Yar yar laam entha trailer ah pathona Hans Zimmer music keta mari eruku nu nanchega
4	C038292	Roman Telugu	Hate Speech	ilanti avamanalu chiru nee megastar gaa nilabettayi hay is our inspiration love you chiru
5	C038294	Telugu	Hate Speech	మీ అయ్య కూడా అదే గతి పడుతుంది
6	C038312	Tanglish	Hate Speech	kaappan illa ithu oppaaaaaaaaaaan..mokkaya graphics panni rukkanunga low budget la eduthrupaanungalo
7	C038316	Roman Telugu	Hate Speech	Dhinni evadu ra judge chesindi..asalu..manchi matale Ravu dhiniki
8	C038322	Telugu	Hate Speech	చంద్రబాబు శివుడు లాంటి వాడు విషాన్ని కూడా తనలోకి తీసుకుంటాడుఇక ఇలాంటివి ఒక లెక్కే కాదు
9	C038325	Telugu	Hate Speech	అంటే జగన్ కు భయపడుతూనే ఉంటారు
10	C038327	Tamil	Hate Speech	0:33 ங்கோத்தா சில பரதேசி பசங்களுக்கு பாத்ததும் வாயில செருப்ப கவ்வ கொடுத்து அடிச்ச மாதிரி இருக்கும்..
11	C038336	Tanglish	Offensive	Semma bigilugu kojam prblm vatrum poola
12	C038338	Tanglish	Offensive	kotha baadu dlike pottavanunga nai poola narukkunu oompunga daaaaa
13	C038339	Tanglish	Offensive	Phone use panra ovvoruthanum kola kaarunungathan...
14	C038344	Roman Telugu	Hate Speech	manchu kutumbam telugu prajaki devudu icchina goppa varantappadu bharinchalsinde0
15	C038346	Tanglish	Offensive	Endhira logathu sundariye video song kettu vanthu trailer partha vanga like podunga
16	C038355	Tamil	Offensive	வன்னியர் வீட்டு பொன்ன எவன் கூட்டிட்டு poanaanu தெரியலையே
17	C038356	Tanglish	Offensive	Vaitherichalaa! Dislike pottu manasa thethikonga! Thalaivar kaal negatha kooda neenga thoda mudiyaathu! Poi moodikittu paduthurunga!
18	C038385	Tamil	Offensive	ஒரே ஒரு Trailorதா ... கெழவனோட Total அரசியல் image Close..!!
19	C038388	Tanglish	Offensive	ennaikku neriya peru kitta illatha oru ketta palazhum en kitta erukku ajith fanzz okkurathu thalapathy fanz than masss
20	C038395	Telugu	Hate Speech	Ap ప్రజలు పెంట తింటున్నారు కాబట్టి ఇలాంటి నాయకులని భరిస్తున్నారు
21	C038400	Telugu	Hate Speech	రోజా అనేది మనిషి కాదు అది వేస్ట్
22	C038401	Tanglish	Offensive	Kaappan nu solitu ellathaiym aalikuran
23	C038406	Roman Telugu	Hate Speech	ee cinema pedda vijayam saadinchaali anee manasupuurtigaa korukuntunnamu
24	C038408	Tanglish	Offensive	Big spoiler in munji kazhuvadha heroine
25	C038414	Telugu	Hate Speech	దేవీ దేవతలను కూడా అన్నప్పుడు రియాక్ట్ ఎందుకు కాలేదు ఖాన్ఎందుకు దేవుళ్లను ఇలా కించపరుచుకుంటున్నారు
26	C038417	Roman Telugu	Hate Speech	Ee muslims minority lo vuntay secular equal rights kavali valakuMuslims Majority lo vuntay above equal rights kavali apudu valaku secularism gurthuradu examplskeral
27	C038426	Roman Telugu	Hate Speech	Amma correct Ga cheppaavu mi koduku antha donga ippudaina nammu talli
28	C038434	Tanglish	Offensive	Sila Parathesinga Ivan fan like podu Avanga Fan Like Podunga nu solluthunga.... Ethukkune Therilaye.... Arive Illaya Ungalukkellam.... Intha Teaser kum Nenga Podura Cmnt kum Ennada Sambantham....
29	C038441	Tamil	Hate Speech	இந்த ஜாதி வெறிக்கெல்லாம் பிராமிணர்கள் தான் காரணம் . அவனுக்கு எதிர்ப்பாக அனைத்து ஜாதியினரும் ஒன்று திரண்டு மனித ஜாதியை மற்றும் பார்த்து கல்யாணம் செய்து கொள்ளாமல் தங்களுக்குள்ளே அடித்துக்கொள்கிறார்கள் . SV சேகர், எச்ச ராஜா மற்றும் குருமூர்த்தி போன்றவர்கள் ஆனந்தமாக இருப்பார்கள்!
30	C038442	Telugu	Hate Speech	అన్నా నువ్వు పెద్దగా మీ తాతలా ఎదగాలి అంటే నువ్వు పక్కా జెనసేనలో చేరు అవ్వు అన్నా ప్లీజ్ నాకు తెలిసి నువ్వు రాయలసీమ నుండి పెద్ద నాయకుడు అవుతావ్ కానీ జగన్ నిన్ను ఒక చదరంగం లో సిపాయి లా
31	C038444	Tanglish	Offensive	Asuran climax la dhanush soldra dialogue ah ,Arjun modify panni sonna maadri yennaku mattum dha thonnuda
32	C038445	Tamil	Offensive	ஜில்லா படம் மோகன்லால் சர் விஜய் பீட தயொலி யோட நடிச்சது நாள சரியா ஓப்பனிங் கிடைக்கல அத இந்த காப்பான் படம் மாத்தும்னு கண்டிப்பா
33	C038454	Roman Telugu	Hate Speech	maa allu aravind gaari comedy super allu sir plg meeru movies loo act cheyandi
34	C038460	Tanglish	Offensive	Thalaiva viswasam bgm and trailer ending Nkp vaa mothi paru song🤔🤔 ennayaaa ithu
35	C038463	Telugu	Hate Speech	నీతి నిజాయితీ లకు మారు పేరుగా నిలిచిన వ్యక్తి ఆళ్ళ రామకృష్ణారెడ్డి అమరావతి రైతులకోసం నిజమైన పోరాటం చేసిన వ్యక్తి ఆయన పదికాలాలపాటు చల్లగా ఉండాలి
36	C038467	Tanglish	Hate Speech	Amma ilandra dairiyathla indha aatama da
37	C038477	Roman Telugu	Hate Speech	anantapuram loo puttinanduku garvamgaa vundhi naadhi tadipatri niyojakavargam sriram annaku ootu vese avakaasam lenanduku badhaga vundhi jai paritaala
38	C038481	Tamil	Offensive	இதுல என்னத்த குற்றம்... அவனவன் வீட்டு பெண் பிள்ளைகள் மீது அவரவர்க்கு இருக்க வேண்டிய அக்கறை தான் தெரியுது. போங்கடா லூசுங்களா. Trending ஆக்கறதுக்கு வேற ஒண்ணுமே கெடைக்கிலியா... தே@#*%$&#@
39	C038483	Roman Telugu	Hate Speech	jagan oka erri puku gadu vadu vadi modalo paripalana
40	C038487	Tanglish	Hate Speech	Yennada ithu padathai partha etho sura mokka padam pola irukku mokka da
41	C038488	Roman Telugu	Hate Speech	array r entha icchaadu raa neeku
42	C038494	Kannada	Offensive	ನಿಮ್ಮ ಅವ್ವ ಸೂಳೆ
43	C038496	Tanglish	Offensive	Vera lvl Thala version
44	C038499	Tamil	Hate Speech	டேய் நாயே இது படமாட இது மனிதன் பார்க்க முடியாது சாதி வெறி பிடித்த காமக்கொடூரனே. நாங்க எங்கள நம்பி வந்த பொன்ன காப்பாற்ற தான் தெரியும்
45	C038507	Tanglish	Offensive	Flop agaura movie ku trailer vantha enna varla na enna
46	C038508	Tamil	Hate Speech	ஒரு பக்கம் மதம் மாத்துறானுங்க இன்னொரு பக்கம் குலம் மாத்துறானுங்க மானம் கெட்டவனுங்க! திரௌபவெல்வாள்
47	C038511	Tamil	Hate Speech	PCR மட்டும் இல்லாம போனால் தான் இவனுங்க அடங்குவாங்க
48	C038513	Roman Telugu	Hate Speech	Twaralo telugollanta pichollawutaaru
49	C038516	Roman Telugu	Hate Speech	kani ekkuva cheste alasata weakness body peragaka povadam teenage lo tarvata kuda face paina gaddalu pimples ravadam nijambetter keep it twothree times a weekget busy and focus on your studies and career guys
50	C038517	Kannada	Offensive	ಇದೊಂದು ದುರದೃಷ್ಟ ವೇ ಸರಿ ಇಂತ ಮ್ಯೂಸಿಕ್ ಇಂತ ಲಿರಿಕ್ಸ್ ಇಂತ ಬ್ಯಾಗ್ರೌಂಡ್ ಎಡಿಟಿಂಗ್ ಎಲ್ಲ ವಿಭಿನ್ನ ಸುಂದರ ವಾಗಿದ್ದರು 6 ದಿನ ಕಳೆದರು ಕೇವಲ 2.2M ಅಂದ್ರೆ ಬೇಸರದ ಸಂಗತಿ nಯಾವುದೋ ಪರಭಾಷಗಳಿಗೆ ತೋರಿಸೋ ಪ್ರೀತಿ ನಮ್ಮ ಕನ್ನಡ ಚಿತ್ರಗಳ ಮೇಲಿಲ್ಲ.
51	C038522	Telugu	Hate Speech	అన్నో మనకి కూడా ఒక మిషన్ అడుగు కొట్టుకుందాం
52	C038525	Roman Telugu	Hate Speech	ippatikee mea anna vinayamgaa chetulukattukoni nilabadutunnadu
53	C038526	Tanglish	Offensive	Super star..naa. super star..thaaa.. marana wating.........daaaaaaa...vainga..daa. .maronam..mass..maranam..thalaivar.varanum...adhuku...petta pongal..thaana..varanum.... sathiyama. Sollren..aduchu...anrarveroda. oda.vettruven. ......
54	C038528	Kanglish	Offensive	China dali no donation large money all filled communist govt nnBut not India all in donation
55	C038533	Tanglish	Offensive	Oru thavaru seidaal Athei terindu seithal Avan devan endralum vidamatten
56	C038536	Tamil	Hate Speech	தோழரே ஆகஸ்ட் மாதம் இந்தப் படத்தை வெளியிட்டார் என்ன ஒரு பிரயோஜனம் அதுவே இந்த எலக்சனுக்கு புள்ள வெளியிட்டார் உங்களால ஒரு 80 ஆயிரம் பேராவது திருந்துவாங்க பணம் மட்டும் சம்பாதிக்க போதாது நான் சொல்வது புரியுதுங்களா
57	C038537	Kannada	Offensive	ಈ ಹಾಳಾದ ಕೋರೋನ ವೈರಸ್ ಬಂದು ದಿಯಾ ಲವ್ ಮಾಕಟೈಲ್ ಚಿತ್ರಗಳಿಗೆ ತುಂಬಾ ನಷ್ಟ ಉಂಟಾಗಿದೆ...but Don't worry u get best reviews.. All the best for ur nxt movies
58	C038541	Roman Telugu	Hate Speech	Asalu meeku elaa telustunnay rohit ki and kohli ki godavalu unnay ani, politics ni ilaane chedagottaru, ippudu malli cricket meeda paddara?, eraa meku intha kante manchi jobs dorakava?, thu..
59	C038553	Roman Telugu	Hate Speech	Asala eamyna rhyming unda
60	C038555	Roman Telugu	Hate Speech	devi nagavalli oka dogga munda media medha cheddha peru testhundhi
61	C038556	Roman Telugu	Hate Speech	adhe better anthe kaani life long savings one day loo vaste chekudadu lifelong entha karchu avtundo aa oka roje anta karchu pedataaru chaala mandi
62	C038557	Roman Telugu	Hate Speech	Long drive ledu modda ledu normuskoni intlo saavu
63	C038559	Tanglish	Offensive	bruh this shit looks like a lame ass game
64	C038562	Tanglish	Offensive	kolakandula irukken kollama vidamatten thalaivar mAaAaaaaaaaas
65	C038564	Tanglish	Offensive	Pakka trailer....but movie.. wait panni papoom..
66	C038576	Tanglish	Offensive	Enna da adutha flop varupogutha
67	C038578	Tanglish	Offensive	Villaina mass aa kattallayea. So sad. Villain mass aa iruntha thaa movie mass aa irukkum
68	C038579	Roman Telugu	Hate Speech	anna nee phone neenu evi niki anavaram
69	C038581	Roman Telugu	Hate Speech	Rajagopal neeku ethics levu
70	C038586	Tamil	Offensive	வயசான ஒருத்தர்மூணு கோடி டீசெர் விஎவ், அறுநூறு கோடி VASOOL ன்னு அல்லுராறு....விக் PATHI இன்னும் விக் வச்சிக்கிட்டு பழைய ரஜினிபடத்த கோப்பி அடிசிக்கின்னு....DIALOGUE மட்டும் நல்லா டெலிவரி பண்ணுவாரு ...
71	C038589	Tanglish	Offensive	Orutharmela neega viswasam MA erukarthuka Enaurutara a asigapadurega
72	C038594	Tanglish	Offensive	punda Mary eruku trailer Siva nalla vechu senjutan ajika vaa
73	C038598	Telugu	Hate Speech	చిరంజీవి గారికి సూపర్ తమ్ముడు పవన్ కళ్యాణ్ గారుమోహన్ బాబు గాడికి కరెక్ట్ మొగుడు పవన్ కళ్యాణ్ గారు
74	C038605	Roman Telugu	Hate Speech	vaadu chadavaledu ani ardham avutundi
75	C038609	Tanglish	Hate Speech	Viswasam BGM ah mix panni potrukar pola...
76	C038611	Tanglish	Hate Speech	Yethir patha alavuku trailer ila Sasikumar kattai eaduthu adichathu car parakuthu enaga da dai yebba sammmi
77	C038613	Roman Telugu	Hate Speech	voh acting vaerae level bass adaragottaaru bhalegaa undhi
78	C038616	Kanglish	Offensive	Yar guru evlu chaina hudgi naa indian aa gothilla
79	C038619	Tamil	Hate Speech	இங்க பர தேவிடியாக்கள்... மற்ற ஜாதி பெயரில் ஃபேக் ஐடில கமெண்ட் பன்றானுக... விழிப்படைவோம் ஒன்று படுவோம்
80	C038622	Tanglish	Hate Speech	Ponga Da Comedy Piceungla Enna Movie Vandhalum Pariyaerum Perumal Pola Varadhu Da JaibheeeM
81	C038624	Tanglish	Offensive	His getup is looking like jaguar movie hero getup ( mask and body language )
82	C038625	Roman Telugu	Hate Speech	aut tatha aan fire
83	C038626	Tanglish	Offensive	Ipdi oru Maas record Panna intha trailer yen innum trending la varala...kaduppa irukku...
84	C038633	Tanglish	Hate Speech	Sahoo flop Today Kaappan release agirukalam nu yaruyellam ninaikurigga
85	C038634	Tamil	Offensive	தம்பி... நீங்க எல்லாம் YouTube-கு புதுசா?? எந்த video வ இருந்தாலும் மொதல்ல likes தான் update ஆகும் அதுக்கப்பறம் தான் views update ஆகும்... puthusa jio sim vangi puthusa YouTube la pakravanga ellam konjam silent ah iruntha nalla irukum...
86	C038635	Roman Telugu	Hate Speech	sky kohili valle india semis kii vachindi
87	C038643	Roman Telugu	Hate Speech	mana desamlo babu gogineni garu lanty vaalu chalakavali
88	C038644	Roman Telugu	Hate Speech	sakshi correct eppudu rasindani meeru mea jokulu
89	C038645	Kanglish	Offensive	K K neen tunne chipake kayak illa
90	C038647	Tanglish	Offensive	pana maratthula irupathu nonku Thala ya ethirthaa sanku
91	C038650	Tamil	Offensive	அப்பா ரிச்சர்டு நீ கிறித்தவம் உன் தங்கச்சி ஷாலினி யாருக்கு பா கட்டிக்கொடுத்த மாப்பிள ஒரு இந்து. ( அஜித்) . இப்படி நீயே போன் பண்ணிட்டு ஊருக்கு பாடம் சொல்லாத இந்த படம் பயங்கர தோல்வி
92	C038651	Tanglish	Offensive	Dae ne la thirunthave maatiya padam nadikurana padam intha lachanathula evuru iron man voice panrara thu .
93	C038659	Tamil	Offensive	உதயநிதிய தவிர பாக்கி எல்லாரும் frame ல merge ஆவுறாங்க அவன மட்டும் avoid பண்ணிருக்கலாம்... But we know what Mysskin is... Let's hope for the best.
94	C038664	Tamil	Hate Speech	இது யாரு குற்றம்.... பொண்ணுங்களுக்கு வளர்ப்பு சரி இல்லையா.... இல்லை பசங்களுக்கு வளர்ப்பு சரி இல்லையா? இல்லை பெரியவர்கள் வளர்ந்த விதம் சரியில்லையா?
95	C038666	Roman Telugu	Hate Speech	enni kashtaala tarvaata happy vastundo teliyadu brother kashta jeevulu
96	C038668	Telugu	Hate Speech	ఇంటర్వ్యూ చూసినా తర్వాత చాలా భాదగా ఉంది సమంత గారికి మంచి విజయం చేకూరాలని ఆశిస్తూ
97	C038673	Tamil	Offensive	#ஜெயம்_ரவி கோமாளி இல்லை, நான் அரசியலுக்கு வருவது உறுதி அவர் தான் கோமாளி🤣🤣🤣🤣🤣
98	C038675	Telugu	Hate Speech	ఎవడ్రా ఎవడ్రా వీడు పేకాట క్లబ్బులు నడిపించేవాడు
99	C038683	Tamil	Offensive	From our and their and photo there with W எச்ச பையன் பா ரஞ்சித் அவன செருப்பால அடிச்ச மாதிரி இந்தப் படம் வெற்றியடைய வாழ்த்துக்கள்
100	C038686	Kanglish	Offensive	Ha sir..kanada movie nam janane nodthaila
101	C038698	Telugu	Hate Speech	పెళ్లి గాని ప్రసాదు హీరోలల్లా పెళ్లి కానీ హీరో ఎవరంటే అది ప్రభాస్కు మాత్రమే సొంతం
102	C038700	Roman Telugu	Hate Speech	aa shree gaadimeeda aankshalu vidhinchaarushree mohan babu garu shree balaiah babu garu dilraju garu inca chaalaa mandi nirmaatalu nirnayam teesukunnaru
103	C038706	Telugu	Hate Speech	పందులే గుంపులుగా వస్తాయిసింహం సింగిల్ గా వస్తుందిజై కేసిఆర్ జై జై కేసిఆర్
104	C038708	Tanglish	Offensive	Mokka Hindi movieya apadiye remake pannirukan Avlo worth illa mokka than
105	C038726	Tamil	Hate Speech	இயற்கையாகவே உற்பத்தி ஆகுற நதிய தனக்குமட்டும்தான் எண்டு சொந்தொங்கொண்டார்ர உரிமைய யாருங்க குடுத்தா??? யாருட்டையாவது பதில் இருக்கா....
106	C038729	Tanglish	Hate Speech	Oru sila vj fans ku vayiru eriyuthu summa vanthutu mokka nu tu yennada upload aana udanae mokkanu podra trailer ah kuda mulusa paaka maatiya da venna.... Vj fans situation now rnga vaguru eriyuthu.....
107	C038733	Tanglish	Offensive	Dialogue'laan Over'a irukku, Kelattu payala, vayasaana kaalathla yaen da yenga uyira vaangura ??
108	C038735	Tamil	Hate Speech	VFX எல்லாம் பார்க்கும்போது படத்துக்கு விவேகம் ன்னு வச்சதுக்கு பதிலா வீடியோகேம் ன்னு வச்சுருக்கலாம் பொருத்தமா இருந்து இருக்கும்
109	C038739	Kanglish	Offensive	Paaapa. Konegu tik tok hoythu.. nayigal boglod kadme aythu
110	C038740	Roman Telugu	Hate Speech	jeeniyune banner and andaru chaalaa hardwork chestaaru
111	C038742	Tanglish	Offensive	Thalaivar:Naan arasiyaluku varuvadhu urudhi..Hey idhu 96..Yara yemathirungam
112	C038744	Telugu	Hate Speech	Hero లని చూసి herione ల ని చూసి మురాసిపోయే కన్నా బండ్ల గణేష్ సర్ interview చుస్తే ఒక మంచి positive vibration వస్తుంది కష్టం అనే పదానికి అర్థం నీవు సర్ అందరూ comdieons ఉన్నారు కానీ మీరు life లో king సర్ Love u Sir Love you forever Sir
113	C038745	Roman Telugu	Hate Speech	shami vadu vadi erri puku fielding
114	C038747	Roman Telugu	Hate Speech	ah group loo nannu add chaindi mawa
115	C038749	Tanglish	Offensive	Sathyama sollurean sodai badam inimayel tamil naatulla odaithu adichi andruwarroda oda vittru ohm
116	C038754	Tanglish	Offensive	Devadiyavuku porantha paiyaleh , Rajini yeppa 96 la politics ku varennu sonnaru , avaru Pera sollameh poolappu nadatha mudiyalelah , yecha
117	C038759	Roman Telugu	Hate Speech	Ne failures ni kuda honest ga accept chesthav andhuke nuv Greatnormal human being ki adhi kudharadhu
118	C038760	Roman Telugu	Hate Speech	malli malli repeat chestu chustunna vaallu entamandi unnaaru
119	C038763	Tanglish	Offensive	Nithya menan bettar than kangana Nithya face cut, body shape look like jayalalitha
120	C038765	Roman Telugu	Hate Speech	saar mea tandri kodukula paatralu chaalaa super gaa untaayi saar naaku kuudaa iddaru kodukulu vaallatho eppudu ilaage kaamedeegaane untaanu
121	C038766	Roman Telugu	Hate Speech	tyson: rey puri inko sari ni mokham choopistahe egiri egiri dengutha
122	C038768	Roman Telugu	Hate Speech	anthaa sodhi chepparu conny asalu aame athani paina aem matladindo cheppaleduintaku atanipaina aame chesina comments enti
123	C038769	Roman Telugu	Hate Speech	real hero real leader mulla reddy garu
124	C038771	Roman Telugu	Hate Speech	Paytm kukkalu ekkada, idi kuda cbn gare plan chesaru antaremooo
125	C038773	Roman Telugu	Hate Speech	Niku sambhamdam leda anduke ni shavam kuda dorakakunda chesadu god
126	C038774	Tanglish	Offensive	ENNA HARRIS JAYARAJ-U............... DARK KNIGHT BGM LAM KEKKUDHU........PERIYA HANS ZIMMER IVURU.... ?!?!?!?!?!?!?!?
127	C038775	Tanglish	Hate Speech	teaser marana mass but ajith fans ungalukku fire engine anuppattuma
128	C038778	Kanglish	Offensive	le gubad..... likes inda aden sigutto nimgella..... olle bhikshukara thara like maadi like maadi andkondu.....
129	C038786	Telugu	Hate Speech	Hope that there is no ending in madhu character waiting for next episode in telugu with madhu again మధు పోకూడదమ్మారేయ్
130	C038788	Tanglish	Offensive	Yo enna ya likes ennum pathala
131	C038801	Roman Telugu	Hate Speech	maeru eppudu telugu lone matlada taaru
132	C038805	Tamil	Hate Speech	விபச்சார இயக்குனர்களுக்கு மத்தியில் உங்கள் தைரியம் புதிய தொடக்கத்தை ஏற்படுத்தப் போகிறது
133	C038810	Tanglish	Offensive	MADAN GOWRI paatutu trailer pakkuravanga unga thumba use pannunga
134	C038813	Roman Telugu	Hate Speech	nayakuralu cinema nundi neenu nagababu abhimanini mega brothers ante chaalaa ishtam goppa annadammulu
135	C038815	Tamil	Hate Speech	பொய் செய்தி பரப்பி trailerஐ ஓட்டலாம், படத்தை ஓட்ட முடியாது. கோமாளி படத்தை நீதிமன்றம் சென்று தடை செய்யவும் தயங்கமாட்டோம். தீர்வு-மன்னிப்பு,அந்த உண்மையை திரித்து கூறும் காட்சியை நீக்கணும் #துரோகிகளையும்_நேசிக்கும்_ரஜினி
136	C038822	Kanglish	Offensive	MONSTER_KANNADA jail ge hog bandh sule maga
137	C038825	Kanglish	Offensive	Guru ninge like beku andre kelu Kodthare adu bitu thandidabeda
138	C038830	Roman Telugu	Hate Speech	malla oka donga veda vadu lanja eshalu fees tagincharu gani desham ni uddharistharu
139	C038836	Tamil	Hate Speech	திரைத்துறையில் இப்படம் ஒரு சாபக்கேடு ஜாதியப் பெயர்களால் வரும் அனைத்துப் படங்களையும் எதிர்ப்போம் , ஜாதிகள் இல்லையடி பாப்பா.
140	C038846	Roman Telugu	Hate Speech	Arey vaadu paata padtunnada leka padyam oppacheptunada
141	C038848	Roman Telugu	Hate Speech	Ayya kulaala gajji vadhulu, nee STRAATAJI baaga ledhu nuvv saadhinchalev
142	C038849	Kanglish	Offensive	Worst song ever...
143	C038850	Tanglish	Offensive	Paavam ajith fans....sarkara beat panna mudiyala🤣
144	C038851	Roman Telugu	Hate Speech	rajakeyaluhameraverakun
145	C038853	Kanglish	Hate Speech	China para mat adoru china ke kalsbek bolimaklu
146	C038859	Tanglish	Offensive	Hero vera yar na podunga pa plz
147	C038867	Tamil	Hate Speech	இங்க பறையன் பொன்ன காதலிக்கதா வண்ணியனும் இல்ல தேவரும் இல்ல அதே மாதிரி வன்னியன் பொன்ன காதலிக்கிற பறையனும் இருக்கான் சக்கிலியனும் இருக்கான் ரெண்டு பக்கமும் தப்பு இருக்கு இதுல எதுக்கு உத்தம வேசம் காசுக்கு கூத்தடுற சிவசாமி ஒன்னு தான் இந்த திரெளபதி ஒன்னு தான் 🤣 ஆள் ஆளுக்கு தூக்கி புடிச்சு வெட்டி உசுற விடாம போய் பொழப்பு புண்டைய பாருங்க டா அவன் அவன் குடும்பத்துல பொட்டசிங்கள ஒழுங்கா வளத்த எந்த அப்பனும் பயபுட தேவ இல்ல '!
148	C038870	Tanglish	Offensive	Nethaan ennoda thala unna ethirtha velum kola
149	C038871	Tanglish	Hate Speech	Saathi vena venanu pona saathi venunu padamma da potato
150	C038878	Kannada	Hate Speech	ಅಪ್ಪಟ ಕನ್ನಡದಲ್ಲಿ ಮನಸು ಮುಟ್ಟೋ ಹಾಗೆ ಸ್ವಚಂದವಾಗಿ ಮುಖ ಒರಿಸ್ಕೊಳ್ಳೋ ಹಾಗೆ nಚೆನ್ನಾಗಿ ಉಗಿತಿರಾ ಅಣ್ಣಾ ಉರ್ಕೊಳ್ಳೋರು ಉರ್ಕೊಳ್ಳಿ ಕರೆಂಟ್ ಹೊಡಿದ ಕಾಗೆ ಹಾಗೆ
151	C038879	Telugu	Hate Speech	పడుతున్న సన్నాసులకి మీకు ఇంత ఏజ్ వచ్చింది కదా మీ అమ్మ కూడా అంటే కదా
152	C038881	Tanglish	Hate Speech	edhala pathu YouTube uyirode iraka¥ ? ? ?adada achariyam ...'!!!!!
153	C038882	Tanglish	Hate Speech	Anjaathe - Prasanna Thuparivaalan - Vinay And Psycho - jitthan Ramesh Myskinns villain's
154	C038886	Roman Telugu	Hate Speech	Ilanti MLA Anni niyojaka vargallo enduku leru
155	C038890	Roman Telugu	Hate Speech	Shabash gundu andariki Baga gundu kodutunnav shabash Chetta bjp
156	C038904	Telugu	Hate Speech	దీన్ని రోడ్డమీదవదిలేసారు దీనికి రాకేష్ మాస్టర్ కరెక్ట్
157	C038907	Tanglish	Offensive	Dei eppo da varum indha padam
158	C038912	Kanglish	Offensive	kumar banthu jaathi naayi savi savi nenapu soole sudeepu pans for a reason 🤣🤪
159	C038918	Roman Telugu	Hate Speech	anna mea spandhana baagundi
160	C038924	Kanglish	Offensive	Gopal avn ondhu hero.na thu..
161	C038928	Tanglish	Offensive	Idukku ellam karanam anda ranjith nai Dan ....
162	C038930	Tanglish	Offensive	Yaarupa hero dup panadhu... Mesmerizing voice.
163	C038934	Kannada	Offensive	ಸಾರ್ ಸಾರ್ಥಕ ಬದುಕು ನಿಮ್ಮದುnಸತ್ಯಶುದ್ಧ ಕಾಯಕ ನಿಮ್ಮದು
164	C038936	Tamil	Hate Speech	நா அரசியலுக்கு வருவது உறுதி. ஆனால் எந்த ஆண்டு என்பது உறுதியில்லை.
165	C038937	Tanglish	Offensive	Dei Naei....yentha paradesi da dislike pannathu.....
166	C038942	Roman Telugu	Hate Speech	Satya over action ekuva aindhi arjun paina. Papam vadi affection kuda content laga thisukundhi
167	C038943	Tanglish	Hate Speech	1000 asuran vanthalum 1000 pariyarum perumal vanthalum Intha naaigal thirunthathu Parpanuku ellarum suthiran ( thevidiya paiya ) tha
168	C038946	Roman Telugu	Hate Speech	super brow anta ina mana ongol vaalu super brow
169	C038955	Tamil	Offensive	First day first show பார்த்தேன் கொஞ்சம் ஏமாற்றம்தான்
170	C038960	Tanglish	Offensive	Intha muttapunda en overah pesikitte irukaan..
171	C038961	Roman Telugu	Hate Speech	Dear ETV Variki Dear Gnapika Entertainments Variki Dear Ali Gariki Sir Adivi Sesh Gariki Madam Saiee Manjrekar Gariki
172	C038963	Roman Telugu	Hate Speech	Me Bathukulu yenduku ra
173	C038964	Roman Telugu	Hate Speech	neevu great annasupar
174	C038965	Roman Telugu	Hate Speech	avatar oka adbhuta prapancham dheeni director james cameron antakanna adbhutam aayana ideas kii creativity kii
175	C038970	Kanglish	Offensive	Dislike yav mahanbhavru madiradu guru.!! Looks like promising trailer
176	C038971	Kanglish	Offensive	Firstu neen beldu
177	C038974	Tanglish	Offensive	Kommala dai ennaram 5 million vanthrukum , divo
178	C038975	Tanglish	Offensive	🤣Batman Kae Tough u kudupan. Pola..
179	C038977	Roman Telugu	Hate Speech	TRS entha istha annadu ra niku nv em samsarivi kavu ra Praveen..
180	C038981	Tanglish	Offensive	Dislike pottavangalam sathiyama sollunga trailer nalla illa? Unga nengila Kai vachi sollunga trailer nalla illa?
181	C038984	Roman Telugu	Hate Speech	Rey yendhuku ra ...puri garu cheppindhi okkati ...miru chupinchedhi inkoti....rava annadu puri garu dhani vere laga cheptharu andhuku ra ....
182	C038990	Roman Telugu	Hate Speech	Nivedita eyes lo anandam choodandi great Everest ekkinantha anandam
183	C038992	Roman Telugu	Hate Speech	chaalaa baagaa explain chesaaru brother small correction mooladhara aagna chakra sahasraara
184	C038993	Roman Telugu	Hate Speech	OK mari maa sc cast ki esthava siggu undali
185	C038995	Tanglish	Offensive	Ena maestro Ilayaraja Beethoven's music eduthu potrukaru. Ean athuku equala music poda vendiyathuthana. Govind Menona avlo kevalama pesunaru. Ipa Ilayaraja ku ithu 'aanmai attra seyal'a theriyalayama.
186	C038996	Tanglish	Hate Speech	Otha Kuruma vechu senjutanga baadu Lot of family !
187	C039002	Telugu	Hate Speech	మహానుభావుడివి సార్ నువ్వు. మేడం గారు మికో నమస్కారం. ఇద్దరు సరిపోయారు. నిజాన్ని నిర్భయంగా
188	C039003	Roman Telugu	Hate Speech	enti kottedhi duck out ayyadu politics lo
189	C039005	Tanglish	Offensive	Seems like pakka telugu commercial movie
190	C039006	Tanglish	Offensive	Enna da 2days ku mela aguthu innum 1miliyan like varala. Eppo than varum 3 month apram ahh..
191	C039008	Tamil	Hate Speech	ஜாதி படம் எடுக்குர நாய் எல்லாம் நாசமா பேகணும் து நாய்
192	C039011	Tanglish	Offensive	Gommala vararuda ye thalaivar ippavea alluthuparu palapearuku parupuuu.....
193	C039012	Tamil	Offensive	இந்த படத்தை தயவு செய்து பார்க்க வேண்டாம். ஜெயம்ரவி உண்மையில் கோமாளி. அவன் வாகனவிபத்தில் கோமா நிலைமைக்கு போகனும்.
194	C039019	Tanglish	Offensive	Edhuku da music ah COPY adikerenga🤯🤯🤯
195	C039026	Tamil	Offensive	டேய் ஆதி உங்க அம்மா கூதி ...தேவிடியா பையா எங்க அண்ணன் தளபதி விஜய வா கலாய்க்கிற ...ஒம்மால உன் படம் எப்படி தியேட்டர்ல ஓடுதுன்னு நான் பாத்துக்குறேன் ....
196	C039027	Roman Telugu	Hate Speech	niku champi pindam peteydhi neny ra kcr
197	C039028	Roman Telugu	Hate Speech	Na ayya somma aa paisalu. Ma daggara ni dengesina babbulu avi emanna kontav
198	C039029	Kanglish	Offensive	kichcha neenu nange alveno huttirodu nan bale koose respect fathers my waste sperms all bale pans nam balegaran hendthi malayalee maneli oble avalanthe hogi avl kari thulna kelike biddange nekku thuldeepanan pan agidukku saarthka agutte puccha pans for a reason 🤣🤪
199	C039030	Kanglish	Offensive	MONSTER_KANNADA bande iru haktini nim amman tulge sule khaan
200	C039031	Kanglish	Offensive	Boss E nan makluge
201	C039036	Tanglish	Offensive	Move pathutu vanthu trailer pakurvnga yaru
202	C039037	Roman Telugu	Hate Speech	Kasta padithe eppudu pratipalam untundi congratulations
203	C039040	Telugu	Hate Speech	వీడి బొంద. గౌరవం ఇచ్చింది కాబట్టి పక్కన ఉమ్మేసింది. లేదంటే, వీడు అన్న మాటలకి మొహానే ఉమ్మేస్తారు ఇంకెవరైనా అయితే
204	C039044	Roman Telugu	Hate Speech	Aaa cheera etthi guddalo pettara be nee mogga ni
205	C039051	Roman Telugu	Hate Speech	Sollu nayala
206	C039052	Tanglish	Offensive	I see VCK thalaivar mama-Valavan
207	C039053	Telugu	Hate Speech	జగన్మోహన్ రెడ్డి వల్ల పిల్లలు బాగా చూసుకున్నాడు అని యాంకర్ వాగు తోంది వాళ్ళ పిల్లల్ని కాక నీ పిల్లలు బాగా చూసుకుంటారు
208	C039054	Kanglish	Offensive	Innu ide avrige bro super roast
209	C039055	Tamil	Offensive	அம்பேத்கார் என் பூலு .. பர் தேவிடியா பசங்க
210	C039061	Tanglish	Offensive	Intha manusan enna pannunalum pidikuthu.. athu en apdinu therila pa...
211	C039063	Tanglish	Hate Speech	feenix paravaya... :v :v.... appo avan fans lam feenix kunjukalaa :-P :-P
212	C039064	Roman Telugu	Hate Speech	ndaru evarni chustunnaro kaane neenu maatram real hero sonusud sir nee chustunna
213	C039066	Tanglish	Offensive	Eppa ranjithu paru epdi irukku trailor
214	C039067	Roman Telugu	Hate Speech	ninety esukuni pandam dhaa manakenduku yivvanni
215	C039075	Telugu	Hate Speech	ఇక్కడ కామెడీ ఎక్కడ ఉంది రా బాబు......... మీ over action మీరు.......
216	C039085	Telugu	Hate Speech	Excellent షాట్ goose bumps జై శ్రీ కృష్ణ
217	C039086	Roman Telugu	Hate Speech	orange movie epatiki chusina kottaga untadi nduko telidu ii love too watch dott movie
218	C039090	Tanglish	Offensive	Tears thalaivaaaa. Un kavalan en adhil enaku enrume perumai. Petaaa thalaivar paraak
219	C039097	Tamil	Hate Speech	என்னடா இது சிஸ்டத்தை வச்சு செய்ஞ்சுட்டானுங்க 🤪🤣
220	C039098	Telugu	Hate Speech	RK గారు మీకు మీ టీం కి దన్యవాదాలు సుతి మెత్తగా ప్రశ్నలు వర్ణించారు అహంకారికి అహంకారం కాస్త తగ్గినట్లు అనిపిస్తొంది
221	C039099	Tanglish	Offensive	Like kaithi cmnt bigil indha maari cmnt paatha skip panidunga pa
222	C039100	Tanglish	Hate Speech	Vijay na gethu pokaathu but story?
223	C039101	Roman Telugu	Hate Speech	Nuvu chepu ra lakadikapul Dubai ki yenduku velado donga malligadu
224	C039102	Roman Telugu	Hate Speech	pichi puka adhi wiide ra, nuvvu ni erri puku umpiring
225	C039116	Roman Telugu	Hate Speech	Inko rendu padithey aa migatha dula kuda theerpoddi Uday Kiran 2
226	C039117	Roman Telugu	Hate Speech	pinky kii entha kopam vacchi vuntundo paapam
227	C039119	Telugu	Hate Speech	మా అసెంబ్లీలో బెస్ట్ కమెడియన్... మా మంత్రి మల్లన్న
228	C039121	Telugu	Hate Speech	నా పేరు గుండురావు చదవలేదు చదువురాదు చదివిన రాలేదు
229	C039126	Tanglish	Offensive	Enda trailer ah 35000. Potta pasanga (dislike pannavanunga) kuda parthurukanga.
230	C039131	Tanglish	Offensive	Trailer paakkum pothu vikram nadicha thool movie story maathiri irukku..!! 🤔 🤔
231	C039140	Tanglish	Offensive	2 min silence for 43k dislikers
232	C039142	Telugu	Hate Speech	అలాంటప్పుడు నువ్వు గడ్డి తిను ఇండియా కు ఏకనమి పెరుగుతుంది
233	C039143	Tanglish	Offensive	Vayasukku Taguntha Nadippille, athan ivlo dislikes.
234	C039147	Tanglish	Offensive	Epovama vanmuraiya matum padam edukringa. Yen ipdi mr.vetrimaran...
235	C039151	Roman Telugu	Hate Speech	smile chudanide venakki taggavu brow nuvvu
236	C039153	Tanglish	Hate Speech	yenada karmam idhu trailer ah ila mental hospital patients ah
237	C039157	Tanglish	Offensive	Epdi mela vandhanu mela vandhavana dhaan da keka mudiyum! Enada dialog idhu chaiii
238	C039160	Roman Telugu	Hate Speech	Pattinava papa industry lo ipude lesthudi ra chi marav ra
239	C039163	Tanglish	Offensive	41K dislikes? What the fuck. Vijay fans, unga hero padam teaser varumbodhu paarunga da xD
240	C039164	Tanglish	Hate Speech	Kevalama iruku plzzz iduku teser parwa illa
241	C039169	Roman Telugu	Hate Speech	Krithi please nee pallaku clips veyinchuko teeth chala munadariki vachay
242	C039170	Telugu	Hate Speech	టీవీ ఫైవ్ ఎప్పుడు తప్పుడు ప్రచారమే
243	C039178	Telugu	Hate Speech	వీడియో తీసినాను కొట్టాల వీన్ని కొట్టాల దాని కింద వేసి కొట్టాల
244	C039189	Tanglish	Hate Speech	Unlike panna va ava Amma ellam item tha Thevadiya pasanga la
245	C039191	Tanglish	Offensive	Engada kanum enga thalaivana Vijay Sethupathi engal makkal selvatha kanum appuram enna maythukku ithu
246	C039194	Tanglish	Offensive	Oruvela Surya arasiyalukku vara plan pandrano?
247	C039199	Tanglish	Offensive	Vijay sethupathi annaku nadipu but dance..🤔🤔
248	C039215	Tanglish	Offensive	Padathula Sivakarthikeyan adhigama peasama irndhaalae padam Oodirum By, #YuvaNisM
249	C039216	Roman Telugu	Hate Speech	Karma ra babu ... yesterday kohli interview lo clarity ga cheppaduga mallem ra babu ilanti sollu cheptharu
250	C039218	Tanglish	Offensive	Vera level trailer Sethalum sanda potu saganum Kal la vilundhu saga koodadhu
251	C039219	Tanglish	Offensive	ethavathu oru edathula kathuna paravala....ella edathulaiyum kathuna epadi
252	C039225	Tanglish	Offensive	Ippudi katthurome kekkuravankku kaathu valikkume nu oru unarvu ila
253	C039228	Tanglish	Hate Speech	Ithilum Jilla pole laletane coactor aakannano baavam?!
254	C039246	Kanglish	Offensive	Lol telegram bandirodu alla Amazon prime bandirodu adanna pirate madi telegram hakidarenNivgalu theatre gu hogalla mobile bandru pirate nodtira
255	C039248	Tamil	Hate Speech	தமிழர்கள் நாம், அனைவரும் ஒன்று சோர்ந்து நம் பொது எதிரியை எதிர்க்க வேண்டிய நேரத்தில், இப்படி ஒரு படம் வேதனையளிக்கிறது, தமிழ் வாழ்க தமிழினம் வாழ்க
256	C039254	Roman Telugu	Hate Speech	super sir ilah andaru aalochinchi respectful gaa move ithey society bagupadtadi
257	C039259	Roman Telugu	Hate Speech	kcr great andukeepradaanini vaddannadu
258	C039271	Roman Telugu	Hate Speech	raaju garu meeru super saar bahubali ragu raam raaz super saar puli ante meeru saar
259	C039282	Tanglish	Hate Speech	daii un Fans ah Ipadii kathara vachuttiye da Dewali athuvuma Oru nalla teaser'ahyachum unnala kudukka Mudiyalaiye ... Azhathinga Azhathinga Ena Pantrathu vj ku acting than varathunu Sonna Purunjukkava Poguthu... suma nalla iruku daw Oru kodi Daww teasr'ku nu Poye vadaii Sudunga
260	C039284	Tanglish	Offensive	Dai antha Duruva natchadhiratha first release pannunga Da,..entha trailer ah paakum pothu antha padam neyabagam varuthu
261	C039289	Roman Telugu	Hate Speech	vadi asalu roopam adhe evarini eppudu vaadukuni vadileyaalo vadi kante yea raajakeeya nayakudiki teliyadu
262	C039292	Roman Telugu	Hate Speech	mind blouvannekumbagaa chesaaru acting iddaru super anuko annana
263	C039293	Tanglish	Offensive	Rajni waste shankar kaga padam pakkalam
264	C039294	Tamil	Offensive	மோசமான trailer, director ஜாதி வெறி புடிச்ச தேவிடியா paiya pola, எல்லாரும் எல்லா சமம்னு நினைக்கணும் போதுமா da
265	C039295	Tamil	Hate Speech	ஹீரோ 10 பொண்ணுங்கள Love பண்ணி 100 பேரை அடிச்சு நம்மளை மண்டை காய வைக்கிற Movie இது இல்லை ....இது உண்மையாகவே நகைச்சுவையான சூப்பரான சூப்பரான சூப்பரான படம் ....எல்லாரும் பார்க்கணும்
266	C039296	Tanglish	Offensive	Yaanda dislike panrathuku oru reason irukaada... summa dislike panreenga
267	C039299	Roman Telugu	Hate Speech	Neevi pichi kekalu
268	C039300	Kanglish	Offensive	le murkha nin rajkumar movie nodu ogu .compare madila helid aste kano konga..nbgm gu songs vyatyasa gotta ninge.nnin hamsalekha songs kelu
269	C039304	Roman Telugu	Hate Speech	Edi over action
270	C039313	Telugu	Hate Speech	నాది శ్రీకాకులం జిల్లా కానీ రఘు అన్న వాగ్దాటికి అభిమానిని సంపూర్ణ మైన అవగాహన కలిగిన నాయకుడు
271	C039314	Roman Telugu	Hate Speech	hema kuturu chaalaa chaalaa baguntadi chaalaa suma show loo chusanu
272	C039315	Roman Telugu	Hate Speech	Konderri puk channel la unde
273	C039317	Roman Telugu	Hate Speech	tress kuu support chesthe nuvve
274	C039329	Roman Telugu	Hate Speech	It's not about giving money It's about giving satisfaction to viewers and spreading humanity
275	C039333	Roman Telugu	Hate Speech	neelanti vaaru okkaru unna mana desham baguntadi
276	C039339	Tanglish	Hate Speech	Appo Nerkonda paarvai govindha Gommala semma trailer
277	C039340	Tanglish	Offensive	Apdiea innum knjm dhn Shankar sir. Avengers ah beat panniralam.... Move on Fire
278	C039341	Roman Telugu	Hate Speech	deepika nuvvu manchi dance r vii nee dance ante naakuu chaala ishtam
279	C039344	Tanglish	Offensive	Saguratha irutha sanda potu saganum yar kallaium vizla kudathu No fear
280	C039346	Roman Telugu	Hate Speech	Macha anna lo oka singer unnadubayataku rappinchandi bayyamacha anna oka famous singer avuthaaru
281	C039347	Telugu	Hate Speech	ఓన్లీ బై రెడ్డి సిద్ధార్థ రెడ్డి అన్నయ్య కోసం చూసినవాళ్లు like me
282	C039353	Tanglish	Offensive	Thalaivaaa verithanam .........apdye chumma therikkavidra
283	C039355	Roman Telugu	Hate Speech	chandra babu oka donga na koduku ap ni naisham chesthadhu
284	C039358	Telugu	Hate Speech	పతనాన్ని కోరి తెచ్చుకోలేదు ఎవరు ఏమి చేయలేదు అంత ఆ దేవుని కృప ప్రభు ఆశీర్వాదం
285	C039360	Roman Telugu	Hate Speech	100nizam saar bagachepparu very good
286	C039362	Roman Telugu	Hate Speech	Edi kanna sampurnesh babu melu kadha ra babu expression baaga esthadu edu mv motham okatey expression
287	C039372	Tamil	Offensive	தி௫மாவளவன் மற்றும் ரஞ்சித் நாடகக்காதல் பயிற்சி பட்டறை வழிகாட்டுதலின்படி, வன்னியர் பெண்களை காதலித்து கவுண்டர் பெண்களை தி௫மணம் செய்து முதலியார் பெண்களை கட்டியனணத்து ஜாதியை ஒழிக்க போவதாக உறுதி மொழி ஏற்று நகர்ந்தார், அந்த நீல சட்டை அணிந்த சரக்கு மிடுக்கு தோழர்.
288	C039386	Roman Telugu	Hate Speech	meeru chaalaa great maan simham munduku kukkalu raavu sir love you soo much bratiki konnirojulaina ilaane vundaali love you
289	C039391	Tanglish	Hate Speech	Dislike panravan Vikram fan ha irupan 🤙🤙🤙
290	C039396	Roman Telugu	Hate Speech	emayindi mana balayyaki cheelchi chendaadutunnaduadi patta ainafite ainazai balaiah
291	C039414	Tanglish	Offensive	varusam varusam ipdi oru kirukkan namma kitta vanthu sikkirrrran ithaalaam oru teaserraa ??? tv la podra ads kuda nalla irukku
292	C039425	Tanglish	Hate Speech	I am from sri lanka...pakistan thirudhitu india makkal thaan innem thirundhelle
293	C039430	Roman Telugu	Hate Speech	Cut paste video cut aaeindhi
294	C039431	Tanglish	Offensive	Cinema kàndathinnuu shashaammm trailer kannunnnaa arengillummm ondoo
295	C039434	Roman Telugu	Hate Speech	Idhi kadha kavalsidhiJai kcr
296	C039441	Tamil	Hate Speech	வட நாட்டுக் காரனுக்கு சொம்பு தூக்குவானுங்க
297	C039445	Kanglish	Offensive	Nimge henge gotthu neevu en alle idra
298	C039448	Roman Telugu	Hate Speech	santoshinchadagga mariyu garvinchadagga vishayam
299	C039453	Tanglish	Offensive	where is going tamil cinema yennamma ippadi panreengalema
300	C039461	Tamil	Hate Speech	தோ! வந்துட்டான் ல அடுத்த முத்தையா! ஜாதி, மய்ரு னு.இப்டியே மக்களை வெறியேத்தி விட்டுட்டு நீங்க குளிர் காயுங்க
301	C039463	Tanglish	Offensive	Sirapana tharamana sambavangala inimel tha paaka pore
302	C039466	Kanglish	Hate Speech	Tiktok mado gaandu s.. maklu
303	C039474	Tamil	Hate Speech	பதிலுக்கு ரிவஞ்சு எடுக்க கூட முடியாது. நம்மளால. பற ஜாதி பொம்பள புள்ளைங்க லாம் ஏற்கனவே தேவுடியா வா தான் சுத்துறாளுங்க. மேட்டர் பண்ணிட்டு எஸ்கேப் ஆகலாம் பாதா ஏற்கனவே லைன் லா நிக்குது மக்க. வீட்டுக்கும் கூட்டிட்டு போய் குத்து விளக்கு எத்த சொல்ல முடியாது. நாங்க என்ன தான் பண்றது யேசப்பா. 🤣🤣
304	C039475	Roman Telugu	Hate Speech	Swaami nee attitude ardham chesukune maturity ee world ki Inka raledhumay be after 20 years we may get that maturity really you are amazing…
305	C039487	Tamil	Offensive	13k dislikes இந்தநாடு நாசமாப்போகவேன்டும் என்று நினைப்பவர்கலிடமிறுந்து
306	C039490	Tanglish	Offensive	Jaya ravi anna acting..pakka...and yogi babu...
307	C039493	Tanglish	Offensive	Thalaivar rajni eh vachu senjutaan
308	C039495	Tamil	Offensive	என்ன இசை கடவுள் இளையராஜா அவர்களே நீங்க Beethoven கிட்ட இருந்து BGM சுட்டிருக்கிங்க அவருக்கு முதல்ல Royalty கட்டினீங்களா
309	C039498	Tanglish	Hate Speech	Indha padam odathuda.. .diwalikku enna family audience kku pudikramathri padam edungada....
310	C039507	Kannada	Offensive	shivu ನೀನು IAS officerಆ????? uneducated ಅಂತ ಹೇಳ್ತೀಯ.... but ನೆಟ್ಟಗೆ type ಮಾಡೋಕು ಬರಲ್ಲ.... ಕುಡುಕರನ್ನ drinkers ಅಂತ ಅಲ್ಲ
311	C039508	Kanglish	Hate Speech	enu tiktok use madorige mariyadi ela avru indian ne ala..
312	C039512	Tanglish	Offensive	Dei Vikram ku trailer mattum nalla pannuvanga da.Ana Padam mokkiya irukum.
313	C039514	Kannada	Hate Speech	ನೀವು 6-5=2 ಸಿನಿಮಾ ವನ್ನು ರಿಯಲ್ ಸ್ಟೋರಿ ಅಂತ ಯಾಕೆ ಸುಳ್ಳು ಹೇಳಿದ್ದು
314	C039515	Kanglish	Offensive	Tejashands up ande kai ettu annadukka agutta
315	C039516	Kannada	Hate Speech	ಬೀದಿ ಕಸ ಗುಡಿಸಿ ತನ್ನ ಮಕ್ಕಳನ್ನ IAS
316	C039517	Tanglish	Hate Speech	Dei mudiyala da Innuma da indha maari padam eduthutu varinga 🤦‍ Naanga paavam da
317	C039518	Roman Telugu	Hate Speech	BABU KCR MEERU CONGRESS THOTHU MODI SIR GURCHI MARYADAGA MATALDANDI
318	C039525	Kannada	Offensive	ತುಂಬಾ ಅನುಕೂಲ ವಾದ ನಟರಿದ್ದಾರೆ ನಮ್ಮ ಇಂಡಸ್ಟ್ರಿ nallinಸುದೀಪ್sir. ಪುನೀತ್ sir. ಶಿವಣ್ಣ. ಧರ್ಶನ್ ಸರ್ nಇಂತಹ ಹಿರಿಯ ಕಲಾವಿದರಿಗೆ ಬಿಸಿನೆಸ್ ಗೆ nಹೆಲ್ಪ್ ಮಾಡಿದ್ರೆ ಚೆನಾಗಿರೋಧು ಇನ್ಕ್ಲೂಡಿಂಗ್ syedh ಇಂದ್ರಜಿತ್ ಅವರಿಗೂ kooda ಸಹಾಯ ಮಾಡಬಹುಧಾಲ್ಲವೇ
319	C039527	Tanglish	Hate Speech	Hello enna surya Anna name ma mention pannama teaser release pannirukenga .... !
320	C039533	Tamil	Offensive	ரஞ்சித் மற்றும் குருமா க்கு சரியான செருப்படி.. .
321	C039536	Tanglish	Hate Speech	Dei annabelle doll da ithu. Enada pani vechirukinga
322	C039542	Tamil	Hate Speech	மீண்டும் ஒரு மறுமலர்ச்சி வேண்டும் நாடக காதல் கோஷ்டிகளுக்கு சரியான செருப்படி.... திருமா & ரஞ்சித் சோழர் வகையறாக்கள் கதறல் 🤣🤣🤣🤣🤣🤣🤣
323	C039547	Tanglish	Offensive	Rajini sir no1 not Ajith sir
324	C039550	Tanglish	Hate Speech	Surya best Music nalava illa broo U1 ahh poturukalam
325	C039555	Roman Telugu	Hate Speech	Mahanati nuvvu swardaparuraluvi.anta gowravam unte kuturila,marochu.kaani kattukonna mogudini vadhilesavu.modati mogutu kooda vadelesav.swardam kosam NTR garini mabbipatti manchidanila natinchi mosamchesav
326	C039558	Roman Telugu	Hate Speech	raaju gaari kii chaalaa saradaagaa undhi
327	C039563	Tanglish	Hate Speech	Viswasam : if you are bad Petta : iam your dad verithanam
328	C039571	Tanglish	Offensive	Ungaluku hero character set avala sir!!!!
329	C039573	Tanglish	Offensive	Ena da Beethoven music Mari iruku
330	C039574	Kanglish	Offensive	T B kitkobekaste ninu bandi nandu
331	C039579	Kanglish	Hate Speech	Dum andhre star hero galu tageyuva build up movie taraha irbekaagitta
332	C039582	Tanglish	Offensive	Batman belike : yennada panni vechurukinga?
333	C039585	Tanglish	Hate Speech	Ipadi padam edungada vilangum samugam... Jathi veriya thoondum vagayil ulathu... Thadai vidika vendum
334	C039588	Roman Telugu	Hate Speech	Bro ni slang ee neeku plus point Manchi humour undi neelo Elane regular ga videos chestu undu 100k pakka
335	C039597	Telugu	Hate Speech	నిజంగా సూపర్ పుణ్యాత్ముడు ఇలాంటి చావు రావాలని అంటే ఎంతో పుణ్యం అదృష్టం ఉండాలి అని నా భావన
336	C039598	Tanglish	Offensive	Thalaivarthaaah gethuuuu,thalaivar munnadii vaaalum aadaakudathu, thalaiyumm adakudathuuu
337	C039602	Roman Telugu	Hate Speech	nan
338	C039604	Tanglish	Offensive	Thambi Mazhil Vahanam Njan Thala Allai Thala Edukaravan...
339	C039615	Tamil	Hate Speech	இது KICKIN IT OLD SKOOL (ஒரிஜினல் ட்ரைலர் உங்களுக்காக: படத்தின் அப்பட்டமான காப்பியாச்சே!!! சொந்தமா யோசிக்கவே மாட்டிங்களாடா!!! தமிழ் ரசிகர்களே இப்போ தெரியுதா இவனுக எதுக்கு ஹிந்தி படிக்காத இங்கிலிஷ் படிக்காதான்னு சொல்றனுகன்னு. கொஞ்சம் HBO , ஸ்டார் Movies பாருங்கப்பா இல்லன்னா இப்படி தான் உங்க தலையில மொளகாய் அரைப்பானுவ.
340	C039618	Tanglish	Offensive	yepppaaa pichutanga da... semma congrats siva team... yov enna nu pakkama dislike pannathinga ya...
341	C039624	Kanglish	Hate Speech	Howdu movie Adbhuta..... tumba chennagide..... but ending swalpa disturbing ansatte..... adi and diya ondagiddidre innu chennagirtittu..... Elru tumba chennag act madidare
342	C039628	Tanglish	Offensive	Paatu super but ajith paadurathu Semma Asingama irruku...
343	C039629	Tanglish	Offensive	Thoothukudi Karen irrukira varaikum intha padam oodathu. Engala pathu samuga virothinu sonilla. Athu yabakam irrugu.
344	C039631	Kanglish	Offensive	Dinadalli 18 gante malgonige kelsa yar kottru guru ..? Contact info idya?
345	C039633	Tanglish	Hate Speech	Saami intha padam releasku munnadi enna Anga koopdathe appram santhosama sethu poren
346	C039635	Telugu	Hate Speech	ఏ హీరోని ఏ దర్శకున్ని రెమ్యూనిరేషన్ తగ్గించుకుని అడగకూడదు ప్రజలు గుడిసి పోవాలా అంతేగా
347	C039651	Roman Telugu	Hate Speech	Eeee suma overaction rota ga undi
348	C039652	Tanglish	Hate Speech	ana manirantham sir oda visual illai
349	C039653	Tanglish	Offensive	Hero:Briyani ah? 3:57 Boy: adhu na saptadhu unaku idly
350	C039657	Tamil	Hate Speech	எதிர்பார்த்து கிட்டு இருந்தோம் .. Trailer விட்டதுகே.. kolla Peru... poochu kaapu .. erukanga
351	C039659	Tamil	Offensive	வெந்து வேகதா அரை வேகடு ஹீரோ து
352	C039660	Tamil	Hate Speech	என்னங்கடா எங்கே பாத்தாலும் லைக் கெட்டு பிச்சை எடுக்குறிங்க..?
353	C039667	Roman Telugu	Hate Speech	pratipakshaalu saamaanyudini edaganivvaru pedha prajalaki illulu kadutunte ippudu vaallu vacchi elaa kadutunnaru chuustaarata ngaa undhi athani nunchi pedha prajalaki illa pattalu pampinhee cheyadaaniki veelu ledantu aayana stages kuurchunnaadu ante itanu kampu cheyadaaniki prayatninchestunnadu jagananna labdhidaarulu ituvantivi jariginappudu bayataku vacchi mea taluka manasulo unde maatanu vaallaki teliyaparachandi
354	C039672	Roman Telugu	Hate Speech	dance ante idhi ilah undaali style gaa chuudadaadaniki andam gaa aa dhhee show loo chestaaru adhi circus lae untundi
355	C039675	Tanglish	Offensive	Edhula Krish laye pathachi but sk kaga paakalam
356	C039682	Roman Telugu	Hate Speech	indraja gaari fance promolo indraja garu superb timing
357	C039687	Roman Telugu	Hate Speech	Karuvulo vunadu
358	C039688	Tamil	Hate Speech	இதை ஆகச் சிறந்த படைப்பு என எண்ணுவது தான் ஒரு மயக்கம் போதை.... அதீத எண்ணம்... Over rated except pink bag
359	C039691	Tanglish	Hate Speech	Fans show 1.o clock porom massss kaaatrom surya anna na yaaru nu thala fans ku thalapathy fans ku kaaatrom
360	C039692	Tanglish	Offensive	Kurudu, karupu kannadi, nisaptham, thoppi, idhavittu epoppa miskyn veliya varuva🤓
361	C039693	Tanglish	Hate Speech	1:33 Arjun dialogue is for video memes
362	C039696	Tanglish	Hate Speech	Padam ooombitu poga naaam thamilar katchin sarbaga valthukirom
363	C039707	Tanglish	Hate Speech	Trailer ellam nallathan irukk..Padan than Mokka padamaairukk
364	C039710	Kanglish	Hate Speech	Dislike madidorella bevarsi TikTokers..thika urkondavre Burnol kodrooo🤣🤣🤣🤣🤣🤣
365	C039711	Tanglish	Offensive	trailere ippudi irukkunu appam padam entha level ayirukkum
366	C039714	Tanglish	Offensive	Rendu t oru dhammu meedhi kaasu kudunga dai ne kuduthadhea meedhi kaasudhanda
367	C039716	Tamil	Hate Speech	Trailer full ah what's app status dialogue thaan... சொந்தமா ஒன்னும் இல்ல... வருத்தம் pa
368	C039722	Tanglish	Offensive	Dei mudiyala da editor ku loose motion ah da ??? Edhuku da fast forward Mode la motha trailerum ??? Thalavali da ! Saamy 2 Sandakozhi 2 than pola indha padamum
369	C039723	Tanglish	Offensive	Sama trailer full fun.Jayam Ravi. Climax bangan 2026 vandhalum avaru adhaya dhan solvaru
370	C039729	Tanglish	Offensive	Bhojan kujan tamil ponnungale ivanunga kannuku theriyadhu
371	C039731	Tanglish	Offensive	Trailer vera level!!!Kandippa Viswasam vida Petta BLOCKBUSTER hit agum...
372	C039734	Telugu	Hate Speech	దిక్కు మాలిన హెడ్డింగ్ లు వెదవ స్టోరీలు
373	C039741	Tamil	Offensive	தன் வினை தன்னைச் சுடும் கோமாளி படத்தின் இயக்குனருக்கு .....
374	C039743	Roman Telugu	Hate Speech	evaremanukunna cbn garu valuable person
375	C039744	Roman Telugu	Hate Speech	anna ee veediyo mammalni chaalaa entertain chesindi conny kotha vaallani support cheyandi anna fast movie loo allu arjun elaa unnado manaki telusu ippudu pushpa loo elaa unnado manaki telusu enduku alaa anna ardham chesukondi
376	C039755	Tanglish	Offensive	Othaaa thalaivar ey kalaikiriya... thaaa dai... thalaivar ku against ah irunthavan la alinji pona varalaru neraya irku.. ni paaru
377	C039757	Tanglish	Offensive	This video dislike potaven la mentals
378	C039758	Tanglish	Offensive	Kola gaandule iruken mavane kollame vidamaten thalaivar vere level
379	C039761	Kanglish	Offensive	En Anna nim mathgalu Mika 🤣🤣🤣🤣instadalli sigtave bidi anna
380	C039762	Telugu	Hate Speech	నువ్వు ఎమ్ తప్పు చెయ్యకపోతే వాడు ఇవ్వమంటే నువ్వు ఎందుకు ఇచ్చినవ్
381	C039766	Roman Telugu	Hate Speech	palsar bike ramana em ayyipotaaduu shishu marry
382	C039769	Tamil	Offensive	கரூர்-- கொங்கு வெள்ளாள கவுண்டர்கள் சார்பாக படம் வெற்றி பெற வாழ்த்துகள்(ரஞ்சித் குருமா கோஷ்டிக்கு சரியான செருப்படி..வேண்டுமென்றே சாதிய வன்மத்தை தூண்டி இளைஞர்களின் மனதில் நஞ்சை விதைக்கும் குருமா கரகாட்ட கோஷ்டிக்கு இந்த படம் சமர்ப்பணம்.)
383	C039775	Roman Telugu	Hate Speech	madya madyalo aha sound vaerae levelli aunty ekkada dorikindi brow vadaletldugap ekkuvindi brow
384	C039779	Kanglish	Offensive	Ivru helirodu antalla namma dharma shashtra helide. Ashwathhama chranjivi endu. Adre avru doctor manège hogidru adu doubt
385	C039785	Roman Telugu	Hate Speech	radhakrishna garu meeru prapanchamlo andarinee vimarsistaaru andari tappulu kanapadataayi okka chandraala saaru tappa
386	C039789	Tanglish	Offensive	viswasam Ku irundha opening iduku illa y🤔.still only 10 M.viswasam trailer 14 M in one day.edo onu miss aavudu
387	C039791	Kannada	Offensive	Shetty ಹು... ಹೌದೌದು ... ನಿನಗೆ ಕೆಲಸ ಜಾಸ್ತಿ.... ಮೊದಲೇ ಗಂಡು ಡಗಾರ್ ನೀನು.... ಅದೆಷ್ಟು gayಗಳು ಕಾದಿರುತ್ತಾರೋ ಏನೋ.... ಹೋಗು ಕೆಲ್ಸ ನೋಡ್ಕೋ.... ದಿನದ ಖರ್ಚಿಗೆ ಬೇಕಲ್ಲ....
388	C039793	Tanglish	Offensive	amaiku sangu confirmed adai Siva ha ha ha apidiye Feb odi poidu .. Illa 10 paisa paaka maata
389	C039799	Kanglish	Offensive	Diya..... idond name alla
390	C039801	Telugu	Hate Speech	శేఖర్ మాస్టర్ తో ఆ పిల్ల ఏం చేసింది రా నాయనా
391	C039802	Kannada	Offensive	nayak lo ಬೇರೆ ಲ್ಯಾಂಗ್ವೇಜ್ ಅವ್ರಿಗೆ ಬಕೆಟ್ ಹಿಡಿದಿಲ್ಲ ಬಿಡೋ ನಮ್ ಬಾಸ್.... ಸೈಡ್ ಆರ್ಟಿಸ್ಟ್ ಇನ್ ಸೈರಾ &ದಬಾಂಗ್ 3 ಅದ್ರಲ್ಲೂ ಹೆವಿ buildupಲುಚಂದು..... ಸೈಡ್ ರೋಲ್ ಬಾಡಿ ನೇ ಇಲ್ಲಾ ಪೈಲ್ವಾನ್ ಅಂತಾ ಹೆಸರು ಬೇರೆ ಅಸ್ಥಿಪಂಜರ ಅಂತಾ ಹೇಳ್ಬೇಕು.... ಯಾವ್ ಥಿಯೇಟರ್ ಅಲ್ಲೀ ಇಲ್ಲಾ ಗುರು ಪೈಲ್ವಾನ್ 100 ಡೇಸ್ ಕೂಡ ಆಗಿಲ್ಲ utter
392	C039805	Tanglish	Hate Speech	Vandha raja va DHA varuven karnan rajaku 100 dosth dhuriyodhananunga
393	C039807	Roman Telugu	Hate Speech	oka ammai vi vundhi natho argue chesthava puku mosukoni inti panulu cheyi
394	C039808	Roman Telugu	Hate Speech	Sagam kaalchina chutta peekalaku brand amsador
395	C039815	Tamil	Offensive	குருமாவளவன் மற்ற சமுதாய ஆண், பெண் களை கீழ் தரமாக பேசியது இந்த Link ல் இந்த LINK ல் 7:20 நிமிடத்தில் பாரத்தால் நாடக அரசியல் புரியும் 8:30 நிமிடத்தில் பாருங்கள் (8:40நிமிடத்தில் குருமா பேச்சு)
396	C039818	Tanglish	Offensive	Eppadida Keezharundhu Mela Vandha...!? Adha Keezharukkavankitta poi Kezhu...! VJS...Kola Mass...! Kokka Makka Class...!!!
397	C039824	Telugu	Hate Speech	జనం కూడా మారిపోతే చాలా బాగున్ను కదా
398	C039829	Tanglish	Offensive	Kangana Ranaut in and as Chachi 420
399	C039830	Tanglish	Offensive	Bigil pogama yarlam kaithi ku poringa? Hit like?*
400	C039834	Roman Telugu	Hate Speech	cinema chaalaa baagundi superbgood film
401	C039835	Tanglish	Offensive	Namaku thevaiyanathu awards🤘 namba tha adichi vanganum
402	C039837	Tamil	Hate Speech	தமிழ்நாடு ல நடிகைகள் யாருமே இல்லை யா இந்தத் கதாபாத்திரத்தை செய்ய
403	C039838	Roman Telugu	Hate Speech	chaalaa good newscheppaavu anna kcr nee lopaleyandi kaleshwaram project katti chalu andaru poetaaru kcrctraharish raw andrew potarutres party nae vanda due sonia gandhirahul gandhi nae vodalle modieka kcr familientha
404	C039843	Tanglish	Offensive	Don't bother about 43k dislike Always terror in 523k+ rocking THALA Likes....! Oruthar mela neenga vishvasam katruthukaga innoruthra yen ashinga paduthiringa....?
405	C039844	Roman Telugu	Hate Speech	miss yu appa sear nijamaina real hero meeru
406	C039848	Roman Telugu	Hate Speech	tanaku vartinche maatalannee thana notidwarane palikina goppa vyakti
407	C039850	Tanglish	Offensive	Enna da idhu superstar ah ye ipdi ootirukeenga athuvum vayathaana super star endrum paaraamal.... Promising trailer first week eh pakanum mudinja first day ve pakanum
408	C039854	Kanglish	Hate Speech	Sir nim movie nodi nimge thumba ista aytu adre ondu bejaru agtide nNim movie song innu 2 songs release madiri please
409	C039857	Roman Telugu	Hate Speech	tress vaallu istalera dabbulu raa sale
410	C039865	Roman Telugu	Hate Speech	streelanu veedhiloki lagakandi pawan garu choosthe aayanaki party kii chedda paeru vastundi
411	C039866	Roman Telugu	Hate Speech	dance plus season 2 kaavaali
412	C039870	Telugu	Hate Speech	మూతికి ఉన్న మాస్క్ తీసి పెట్టు బ్రో పోస్ట్లేకుంటే భయపడుతున్నవ్ అనుకుంటారు
413	C039871	Kanglish	Offensive	Namboke sadyane illa
414	C039872	Tamil	Hate Speech	அசுரன் bgm konjam copy da nenga
415	C039873	Tanglish	Hate Speech	Ajith ah thavira yellarum arasiyalukku varanga ,Makkala vida CM candidate than athigama irupanga pola
416	C039879	Tamil	Hate Speech	குழந்தைகளையும் matter- னு பேச வைக்கிறிங்க பாருங்க, த்த்தூதூ....... தரங்கெட்ட சினிமா
417	C039884	Telugu	Hate Speech	ఒరేయ్.......నీకు చేతబడి చెప్పించిన ని అబ్బదలకు ఆ చేతబడి కూడా నిన్ను ఏం చేయలేదురా
418	C039888	Tanglish	Offensive	str luks damn funny.. luks too fat..yakkk
419	C039889	Tanglish	Hate Speech	THALAIVAR POLITICAL ENTRY - dei..! ithu 96'.....yaara emaathireenga?''
420	C039892	Kanglish	Offensive	First hog film nodu. Amele yen bekadru comment madu.
421	C039893	Tanglish	Offensive	Enagada YouTube inum trending la add panama irukinga
422	C039894	Telugu	Hate Speech	పేదవాడు కి జగన్ గారు ఎ మంచి పని చేస్తున్న దానికి కోర్టులో కేసులు పెట్టి న. బొల్లి గాడు కీ ఓటు ఎవరు వెయరు
423	C039895	Tamil	Offensive	Vijay Sethupathi Mass Rajni Sir Marana Mass I like the Name Kali கெட்ட பயன் sir இந்த காளி
424	C039896	Tamil	Offensive	இப்படி ஒரு கருமத்த படம் நு எதுக்கு எடுகனும். கருணாஸ் உன் பையன் கிட்ட காத்துக்கோ நல்ல படம் எப்படி இருக்காணும் நு.
425	C039898	Telugu	Hate Speech	మోదీ ఒక ప్రళయం ఆయనను టచ్ చేస్తే ఇక అంతే పాకిస్థాన్ కి ఇప్పుడు బుద్ధి వచ్చినట్టుందిజైమోదీ
426	C039901	Tamil	Offensive	அட பாவிங்கள ரஜினிய ஏன்ட செஞ்சிங்க மரண பங்கம்
427	C039908	Roman Telugu	Hate Speech	cheppedi puurtigaa cheppaniste saripota dhi
428	C039909	Tanglish	Offensive	Thalapathy ya vachi enda epadi panni irukkinga
429	C039914	Tanglish	Offensive	Petta still not get one million likes But viswasam go ahead of one million likes
430	C039915	Tanglish	Offensive	Kaakaa pudikaa sollalllaa........kaakaa vukaaa unna pudikudhu🤣🤣
431	C039929	Tanglish	Offensive	Theatre ellaam insure panni vachukkangappaa.. 2.00 la theatre ellaam kandam!
432	C039946	Tanglish	Hate Speech	sathigalam kidaiyathu oru mannum kidaiyathu konjam pazhanthamizhar meri vaazhunkada thamizhanai iru thamizhukakau iru
433	C039952	Roman Telugu	Hate Speech	immu brow fance ikkada
434	C039961	Tanglish	Hate Speech	dei un thambi kitte irukkura nadukkam unakku illey,...athukkum mela,...thuuuuuuuuuuuuuuuu
435	C039967	Roman Telugu	Hate Speech	Slient pettu bangaram phone
436	C039971	Roman Telugu	Hate Speech	Madhi sommu ea kadha vochesthadhi
437	C039972	Roman Telugu	Hate Speech	​bharat matha kii jai
438	C039978	Tamil	Hate Speech	மேல் ஜாதி பெண்களை மேல் ஜாதி காரர்கள் காதலித்தால் அது புனித காதல் தலித் காதலித்தால் நாடக காதல் பொள்ளாச்சி சம்பவம் பன்னியவர்கள் என்ன ஜாதி
439	C039979	Tanglish	Hate Speech	Inga ivlo roshapadravanga Coimbatore la athanai pengalai emathunanga, torture panangale athu thn 'nadagakaadhal'. Atha yarum kelviye kekala... avunga kadharrna satham unga kaadhuku kekalaya... Oruthan senja thappuku otumotha samugathaye en ipdi elame target panringa... Yarukuya venum kaadhalam... Avan avan kudumbatha pakave inga mudiala... Plz don't spread hatred... Tamilan nu ore kurala maarthati sonnom jallikattu protest la... Ipo ena nilamai...
440	C039981	Tanglish	Offensive	Danush gethu ....stop sila mokkapadangal maaaar3eee
441	C039982	Tanglish	Offensive	Rajini ya pathi comedy panna Oru thaguthi venunda naaya
442	C039987	Roman Telugu	Hate Speech	Valaki kadhu mundhu alantolani interview chestuna villaki pagalali
443	C039990	Kanglish	Offensive	nayak nimma Amman tulla suledeepa movie yavdu hit aagide helu recent aagi bandidralli
444	C039991	Roman Telugu	Hate Speech	dance chaalaa chakkaga chesindi ammai
445	C039993	Tanglish	Offensive	Kolai gandula iruken kollama vida maten......wat a mass n stylish man yar....
446	C039995	Tanglish	Offensive	kola gaandla irukkaan mavanae kollaama vida maattaan. purinjavan purinjikkoa. puriyaadhavan purinjavan kitta kaettu therinjikkoa.
447	C039997	Kanglish	Offensive	T sorry guru nangu avlu adre agalla adke solpa campare mad de..
448	C040005	Roman Telugu	Hate Speech	Kcpd men's kutha chnpi paddengutha
449	C040006	Tamil	Hate Speech	டேய் கோமாளி என்ற பெயரில் படம் பார்க்க வருபவர்களை கோமாளி ஆக்கிடாதீங்கப்பா....🤠🤠🤠
450	C040008	Tanglish	Offensive	Bigil like Kaithi. Comment Enaku kaithi dhaan pudichiriku.
451	C040011	Tamil	Hate Speech	500 கோடிகுடுத்தா எவன் டயரையும் நக்க ரெடி
452	C040012	Tanglish	Offensive	Naan oru kaundan , aana idhu oru kurippitta saathiyai thanimaipadutha raamadaas potta thittam ,idhai yaarum nammbavendam
453	C040018	Roman Telugu	Hate Speech	janasena vaallaki subject ledhu yea debate ayina okate note
454	C040031	Tanglish	Offensive	Ada chaii innum 1m like varleya pavam da amais neenga surya fanz sembadichum onnum velaikagaleya🤣🤣🤣
455	C040033	Kanglish	Hate Speech	Ellla ok kannada kammmi aytu nimm mathalli
456	C040044	Tanglish	Offensive	Nerkonda parvai nu solitu ellam avan seyal padatha eduthu vechirukanga ya
457	C040045	Tanglish	Offensive	Uthungada pongaluku viswasathuku SANGU. Petta Paraak
458	C040049	Telugu	Hate Speech	ఏందిరా ఇది యూట్యూబ్ అనుకున్నారా ఇంకేమన్నానా
459	C040054	Tamil	Hate Speech	இவ்வளவு லைக் வருது ஆனால் எந்த அரசியல் சொரி நாய்கள் நமக்காக வரமாட்டேங்குது
460	C040057	Tanglish	Offensive	Seems movie is not so intresting
461	C040058	Tanglish	Offensive	Lokesh kanagaraj... #Thalapathi_64 ku yaaru la kola waiting la irukurathu....
462	C040061	Tamil	Hate Speech	கடைசியாக நடித்த 6 படங்களும் தோல்வி. இந்த படமாவது ரஜினி குறித்து பேசி வெற்றி பெற வாழ்த்துக்கள்
463	C040069	Roman Telugu	Hate Speech	climax chaalaa baagundi lots of funn enjoyed aaa lott
464	C040071	Tanglish	Offensive	she is looking like Avvai shanmugi Kamal Hassan
465	C040072	Roman Telugu	Hate Speech	Neevalla eekamukka kuda avvadu Pavan Babu velli shootings chesukovellu
466	C040074	Tamil	Offensive	இன்னும் 16 வருஷ கோமள இருந்தாலும் அரசியலுக்கு வரவே மாட்டாரு ரஜினி அவங்க அடிமைக தா கோமாவுக்கு போகணும்
467	C040080	Roman Telugu	Hate Speech	mana pawan kalyan gaari daggara unna goppatanam idhe
468	C040083	Tanglish	Offensive	Shakthiman yenna kappathu nu naraiya per epdi Pani irupinga 90's kids
469	C040084	Kanglish	Hate Speech	Those 1.3k dislikes are seems to be fan of rashmika
470	C040086	Roman Telugu	Hate Speech	asalu munnavar kii hyderabad loo show kii elaa permission istaaru government desperately need violence inn state too gain political mileage
471	C040089	Roman Telugu	Hate Speech	cmr central loo movie promote chesthe baguntadi weekends saturday or sandey movie blockbuster pakka
472	C040091	Tanglish	Offensive	Dislike pandradhuku lam yepadi than ungaluku manasu varudhu cha
473	C040093	Roman Telugu	Hate Speech	Chillara bokugallu
474	C040094	Tanglish	Hate Speech	Ungaluku sakthiman ,engaluku power rangers ellarukum ore feelings thaan Ana trailer Vera level
475	C040098	Tamil	Offensive	நவின நாடக காதல் எல்லா நாயும் பண்ணுது...குறிப்பிட்ட நபரை தாக்கி பேசுவது தவறு...எனக்கும் ஒரு தங்கை உள்ளார்...படம் வெற்றி பெற வாழ்த்துக்கள்
476	C040101	Tamil	Hate Speech	பெருமாள்கள் பரியேறுவதில் சமூகத்தில் பிரச்சனை இல்லை ஆனால் பல திரௌபதிகளின் துயில் உரிக்க நினைப்பது தவறு...... சமூக வன்மத்தை நீட்டிக்கிறது
477	C040102	Roman Telugu	Hate Speech	jayaho rajasingh bharat matha kii jai
478	C040104	Kanglish	Offensive	Nine modalu nine kone song
479	C040113	Tanglish	Offensive	Like - Bigil Comments - Kaithi Deepavali2019
480	C040121	Roman Telugu	Hate Speech	thak sirchalla chakaga cheparuu
481	C040122	Roman Telugu	Hate Speech	Arey Nuvu poyyi KCR gandhi Naku ra. Manchiga matladithey memu kuda manchiga matladtham.
482	C040126	Tamil	Hate Speech	போராடுவதே தப்பு என்றால்??? போராட கூடிய சூழ்நிலையை ஏற்படுத்துவது அதை விட தப்பு... ஒவ்வொரு தமிழனுக்குள்ழும் இருக்கும் கேள்வி????
483	C040135	Tanglish	Hate Speech	5.7k Real Comalis are 2k kids
484	C040139	Roman Telugu	Hate Speech	Assalu monna vachina Khiladi cinima lo anusuya matram hot hot ga ichi padesindianthe
485	C040146	Kanglish	Offensive	Chindi broiiii e munde maklige naman desha bakthi kammi sayor yelo saythare e bevrcgalige tiktok mukya anthe
486	C040157	Telugu	Hate Speech	రైతుల పంటకు డిమాండ్ పెరిగితే... మధ్యతరగతి మనిషి..ఎలా బతుకుతాడు...RGV నువ్వంటే రిచ్ కదా.. ఇందుకే దేశానికి రైతు వెన్నుముక and ఎప్పటికీ పేదొడు
487	C040165	Roman Telugu	Hate Speech	alsa janalu erripuk galu jagan ni cm cheyadam enti
488	C040169	Tanglish	Hate Speech	Samuthirakani padathula Vara Vara athulya nadichikite irukaa....something wrong
489	C040170	Tanglish	Offensive	Petta trailer trending LA varalaya..
490	C040172	Tanglish	Offensive	puratchi thalavi kamika sona tun tun aunty kamikerenga
491	C040173	Tanglish	Hate Speech	Thalaivar rajini ah kindal pannum katchi neekka padanum illa.na mavana dricter padam Odathu
492	C040177	Kannada	Offensive	ಒಳ್ಳೇದು ಯಾರ್ಗೂನು ಬೇಕಾಗಿಲ್ಲ...
493	C040179	Roman Telugu	Hate Speech	maaku problem vaste dhhillee vellaamu dhhillee maa daggaraku vastundi mata meeda nilabettukunnavu annaiah
494	C040180	Telugu	Hate Speech	శర్వానంద్ గారు వచ్చిన కొత్తలో సంక్రాంతి సినిమాలో యాక్టింగ్ రోజుల్లో కెరీర్లు చిన్ని హీరోగా మిగిలిపోతారు అనుకున్నాను కానీ మంచి లైఫ్ వచ్చింది ఇంకా పెద్ద హీరో కావాలని ఆ దేవుని మంచి భవిష్యత్తు ఉండాలని కోరుకుంటున్నాను
495	C040182	Tanglish	Hate Speech	Adai yenadaa jack Reacher padam maadhiri irukuu
496	C040187	Tanglish	Offensive	Kola masss...... Villain chitti is back
497	C040189	Roman Telugu	Hate Speech	Sound thaginchi chudala Thu dinamma yemundhira dintlo lanja la undi
498	C040194	Kanglish	Offensive	Navu matar use madatilla jagatinna yella deshgalu use madatidare.solemagane
499	C040195	Tanglish	Offensive	Kadaisila namma thalaivara bangama vachi senjitinga. Sirappu miga sirappu.....
500	C040202	Roman Telugu	Hate Speech	Jagan paapam pande rojulu dhaggara paduthunnayi ; vasthunnayi vasthunnayi manchi rojulu vasthunnayi.
501	C040206	Tanglish	Offensive	Joaquin Phoenix adhi anna kita irundhu nadika kathukanum
502	C040212	Roman Telugu	Hate Speech	manchi manasu havabhavalu elaa kavalante alaa palikinche kalaamatalli mudduu bidaalu druvataaralu nela raalaru andulo oka mudduu bidha dasari garu
503	C040217	Tanglish	Hate Speech	Ippa dhaan thalaivar sonnaaru ..seruppu pinjidum director...Mr 9 jeyam Ravi and innoaru 9 isary Ganesh ku.... naalu padam hit aanavae periya poolu maadiri vanduruvaanga....
504	C040224	Tanglish	Offensive	Views 44k. Like 75k va purilaya
505	C040233	Kanglish	Offensive	Tik Tok Sadegalu
506	C040234	Tanglish	Offensive	Andhadhun remake maadhiri irukku.. Dei mysskin
507	C040239	Roman Telugu	Hate Speech	E endaku aa Godugu padutunnadu.....itlaanti vaadini ekkada unchalo akkada unchali...YCP vallu ade chesaru....
508	C040247	Tanglish	Offensive	10 k unlike hehehe stomach burners
509	C040256	Telugu	Hate Speech	పాలు పెరుగు పువ్వులు కెసిఆర్ ఫామ్ హౌస్ లో అమ్మినవ్ అది అందరికి తెలిసిన విషయమే
510	C040260	Tanglish	Offensive	Bgm is similar to moribus movie bgm
511	C040274	Telugu	Hate Speech	ప్రాణం పోతే తిరిగి రాదు బ్రదర్స్ చూసుకొని డ్రైవ్ చేయండి ప్లీజ్
512	C040277	Roman Telugu	Hate Speech	Andra prajalaku siggu undali sontha amma nu chellini patinchukoleni vadu Meemanli chusukuntadu
513	C040279	Telugu	Hate Speech	ఒరేయ్ ఇది కామెడీ షో నా లేదా లంజల కొంప నా
514	C040280	Roman Telugu	Hate Speech	Venkatesh Gaari Mature Quality Entante ippatiki New Born star laaga Kamal gari meedha Unna Fanisaani Choopistunnaru Salute To u Venkatesh Garu
515	C040282	Telugu	Hate Speech	సమాజం ఎటు పోతుంది
516	C040284	Tanglish	Offensive	Bat mannavadhu mayiraavadhu ankuttu oram pongada
517	C040288	Telugu	Hate Speech	వర్మ గారు మీ అవసరం పాకిస్తాన్ వాళ్ళ కి ఎంతో అవసరం ఉంది, అక్కడికి వెళ్ళి పోవచ్చు కదా.
518	C040289	Tanglish	Hate Speech	8 k dislikes ithula dislike Panna apdi Enna thappa sollitanga?
519	C040290	Tanglish	Offensive	Gotha like kuda vanga mudiyala neeyalam enga annan thalapathy compateator poda aamai kunjugala poi savunga da
520	C040293	Kanglish	Offensive	Parthasarathi yar kandha ninu
521	C040294	Roman Telugu	Hate Speech	as hay is aaa hinduu hess fighting against all such stupidism and its noo ware relevant too crossing party line
522	C040295	Roman Telugu	Hate Speech	ee lanty kashtamaina panulaku prabhutvam gurtinchi vaariki entho kontha pension manjuru cheyali
523	C040297	Roman Telugu	Hate Speech	anna creativity ki super Anna Ekadavo Vethiki mari Pettavu Nuvu thopu
524	C040298	Tanglish	Hate Speech	Idhu enada arasiyal varudhu naadodigal 2 or uriyadi2va??
525	C040300	Kanglish	Offensive	Chillere rajakarana dailoge super
526	C040301	Roman Telugu	Hate Speech	neenu kuudaa edhi chesina moodurojula muchhatalaagane vuntadi sir continues gaa 21 days chesi life long habit gaa chesukundamu ante avvatamle
527	C040304	Tanglish	Offensive	ORU MANUSHUNA ALICHIDALAM AVANUKAGA VECHA SILAIYA ODACHIDALAM AANA AVAN SINDHANAYUM SIDHARNTHAYUM YAARALUM ALIKA MUDIYADHU
528	C040309	Tanglish	Offensive	Nandri ketta ajith...ungaluku Billa padam moolama breakthrough kuduthathu vishnu vardhan...avaru historical story ready pannitu varusa kanakka wait pandraru...avarku next movie pannama..again siva kuda join pandra...ithu nyayama...?
529	C040317	Telugu	Hate Speech	ఏ జన్మలో ఏం పాపం చేసారో..చిరంజీవి గారు ఇలాంటి వారికి జన్మనిచ్చారు..
530	C040319	Tanglish	Offensive	Enna da athukulla mudichu pochu chai... Thala ya pathutey irukanum
531	C040320	Telugu	Hate Speech	పవన్ కళ్యాణ్ మూవీస్ లో హీరో... రాజకీయం లో ' 0'
532	C040321	Tamil	Offensive	எதிர் பாத்துகிட்டு இருந்த.....படம் எப்போ வரும்னு....பா.குஞ்சித் துங்கமாட்டான்
533	C040322	Roman Telugu	Hate Speech	konchenkuda hero anae pogaru ledhu great saar meeru
534	C040334	Tanglish	Offensive	Thala.. Intha world ku 1 k likes varuma?
535	C040338	Roman Telugu	Hate Speech	Haaa calu chalau okaaaa akalitho vunaaa lion eyes avi jai mega power starjai charan jai jai charan
536	C040339	Tanglish	Hate Speech	Intha music enagayo chinna vayasula ketta mari iruku
537	C040343	Tamil	Offensive	ஆக எடப்பாடி பழனிசாமி பதவி விலக வேண்டும்
538	C040345	Tanglish	Hate Speech	Romba neram ithu enna da like mattum viluthu. But view 492k laye irukku? Ithu enna? You tube ku ennachi? ippo i thing 1million views katanthurukkum
539	C040346	Kannada	Hate Speech	Vitthal ದಬಾಂಗ್ ಆಲ್ಸೋ ಏನು ಆಲ್ರೆಡಿ ಫ್ಲಾಪ್
540	C040358	Tanglish	Offensive	Athana haters um odi poidunga , illa adichi underwear oda vitruvom
541	C040370	Roman Telugu	Hate Speech	kalatapaswi gaari nee ee bangaaru konda yaan tie aar tho oo cinema teeyamani evarainaa cheppandi dayachesi
542	C040375	Tanglish	Offensive	tmrw film release.. inikum trailer pakka vanthavinka yaru
543	C040379	Roman Telugu	Hate Speech	Ne expressions gudda ni dengaa ne patalu gudda ni denga
544	C040383	Tanglish	Offensive	Oruthar mele neenga viswasam kaaturthukaga innoruthare en asingam paduthuringe
545	C040384	Kanglish	Offensive	Super guru awesome video
546	C040385	Tanglish	Offensive	Now 800,076 Likes and 67,245 Dislikes
547	C040387	Tanglish	Hate Speech	tamille kilukemudiyala idhula hindila dubb waste guys
548	C040393	Tanglish	Hate Speech	yenth koora padam aadai. chuma verum koora pattum vech... shit song
549	C040396	Tanglish	Offensive	Gommaaaaaaala Vera LEVEL la irukku daaw sankar Pirichchi Menchitteeenga
550	C040399	Tanglish	Offensive	Enna Mani sir..ethana starsss..adhanaleayee romba bayama erukku
551	C040401	Roman Telugu	Hate Speech	bhuvi adhey 19th over lo madien cheasaru enti moddalo srh key adhey ki maiden kuda avasaram ledhu oka 19 runs ichi dengi match odipincharu
552	C040402	Tanglish	Offensive	Dis like potavunga pundaya muditu ponga da
553	C040403	Tanglish	Hate Speech	Waiting la aah veriyaguthu epa da padam varum
554	C040409	Roman Telugu	Hate Speech	me koduku ki eva ra poka
555	C040423	Tanglish	Offensive	Mokka palaya film sayal niraya irukku....
556	C040424	Roman Telugu	Hate Speech	roja chaalaa tappa chesindi inca chestundi
557	C040425	Tanglish	Offensive	Ivan moonjikkalaam comedy dhan sir varum
558	C040426	Tanglish	Offensive	Thumbnail na paartha saaho MERI iruku
559	C040427	Telugu	Hate Speech	బోకర్ దానిలా మాటలు మాట్లాడకు
560	C040428	Telugu	Hate Speech	Baabu gaari టైంలో మంచి పేరు తెచ్చుకున్న ఫకిరప్ప ఇలా దిగజారి పోయినాడేమి దేవుడా
561	C040443	Tanglish	Hate Speech	This concept looks like arjun suravaram movie in telugu
562	C040445	Tanglish	Offensive	Enakku mattumtha ippudii kaatutha 102k views 140k likes how
563	C040449	Roman Telugu	Hate Speech	aharapadardhalu chalavuprakruti kooda sahakarimchutaleduyidi sentral gavarnament chetilopani
564	C040451	Tamil	Hate Speech	டைரக்கடர் தேவிடியா பையா ஓன்னோட போன்னு ஓடிபோச்சாடா
565	C040461	Kanglish	Offensive	Currect agi helidri sir
566	C040464	Tanglish	Offensive	Poda go**z en Thalapathy ya ve oltriya
567	C040469	Tanglish	Offensive	10 varusathukku pinnadi pona feel da...Trailera da ithuu.....creators update yourself ....jathi mayiru mattai ntu
568	C040471	Kanglish	Hate Speech	Dislike madidavaru dagar rashimka fans
569	C040472	Tanglish	Hate Speech	Thittam pottu kurupitta samuthaya pennai thurathi avarkalai kathal yenra varyhaiyai solli yemathuvathuthan nadaka kathal.... It's 'PROJECT' (not ) 'LOVE'......
570	C040483	Tanglish	Hate Speech	Mersal record'ah pathu Thala fans'ko ila Vivegam Record'ah Paathu Thalapathy Fans'ko kadupperudho ilayo Bollywood Pani Puri vaayanunga paatha seththe poiruvaanunga ! #SouthIndianCinema #Kollywood #ThalaThalapathy
571	C040484	Roman Telugu	Hate Speech	sampu ravali palana marali
572	C040486	Kannada	Offensive	ಈ ಸಾಂಗ್ ಕೇಳಿ ರಶ್ಮಿಕಾ ಮಾದಣ್ಣ ಎಷ್ಟು ಹುರ್ಕೊಂಡಿದಾಳೊ ಅವ್ಳಿಗೆ ಒಂದು ಐಸ್
573	C040490	Tanglish	Offensive	Asuran verithanamkaadu eruntha eduthukuvanga ..kasu eruntha pudikiruvanga ...ana padipa maittum namba kitta eduthukavae mudiyathu ....
574	C040501	Tanglish	Offensive	Deii Peasmmma Iruka bigil ku tickets illana pakalam illana tamil rocker thaa
575	C040506	Tanglish	Offensive	Punda Mari iruku ore madhiri pattern kiruku kuthi Mari screenplay puriyadha vasanam kuthi Mari nadika teriyadhq oru hero thevidiya Mari oru kadhai Vera oruthan senja kadhaya aataya potutu vandhu padam eduka vendiyadhu....idhunaladhan un padam Elam punda Mari iruku odamatudhu
576	C040507	Roman Telugu	Hate Speech	Chi maarandi e trolls chusaina public feeling telusukoni masalukondi
577	C040509	Tanglish	Offensive	nt gud get out the field Surya Kullan kundan suryaaaa
578	C040510	Tanglish	Offensive	Inga rajni ottanathu pudichu irruku sonavan ellaam potta Vijay fans.. bcz avangaluku rajini pona thaan avan dupuku thalaivar vijay varamudiyum no1 nu ninaikiraanga.. thu..
579	C040511	Tanglish	Offensive	Tamil natu Thruthalakku 58 flim teaserkku dislike high level panunam it Watch.me I Am Waiting
580	C040513	Tamil	Hate Speech	பெண்களுக்கு எதிரான குற்றம் செய்யறது எல்லாம் சேரிப் பசங்களாடா? தப்பு பண்றவன் எல்லா சாதியிலயும் இருக்கான்டா இந்த கமெண்ட் படத்துக்கு இல்ல ஒழுக்கசீலனுங்க மாதிரி கமெண்ட் பண்ற சாதிவெறி பாய்ஸ்க்கு......படத்த பார்க்கலாம்
581	C040523	Tanglish	Offensive	28k dislike ku karanam vj fans ah than irupanuga
582	C040525	Roman Telugu	Hate Speech	sir arunh kumar garu meeku hridayapurvaka namaskaramulusir neenu kuudaa couple chit loo chit one ll vesaanu chit puurti ayipoyindinene kakunda maa brother chetha friends chetha kuudaa veyinchanubut ippariki amont ivvatam leduamont adigithe daaniloonae fixed deposit cheyyamantunnaru consumer court kii velthe baguntundaplz salaha istaarani aasisunnaanu
583	C040536	Tanglish	Offensive	Rajini sir enda umburinga pottaikala.. u gonna fail in box-office
584	C040538	Roman Telugu	Hate Speech	Na loveda Vikram eedu okka 2,3 cinemalu hit kagaaney Chiranjeevi kanna ekkuva feel ayithunnadu
585	C040542	Tamil	Hate Speech	திருமாவளவன் ஐயம் பா குஞ்சித் தையும் செருப்பால் அடித்த மாதிரியே இருக்கு இந்த டயலாக்
586	C040545	Roman Telugu	Hate Speech	envy enjoy chestu baale padavu
587	C040549	Kanglish	Offensive	Parthasarathi ille gotta aagta ide ninu yestu urkondu sattidiya anta yenro nimma same balegarna type nayi padu 🤣🤣🤣
588	C040551	Roman Telugu	Hate Speech	deyyaalu kanipiste evarainaa daadusuku0taaru aa raavatam kuudaa chuudu elaa vanchado arundhati cinemalo pasupati laga
589	C040555	Tanglish	Offensive	Thiruma thevudiya payyan sonnadhadha indha movie velichathukku konduvarudhu
590	C040558	Roman Telugu	Hate Speech	Baga over chesthunnav elane chesthe thondharaga pothav
591	C040563	Tanglish	Offensive	Climax la Rajini ya ooti vaitangaa
592	C040565	Roman Telugu	Hate Speech	naa drushtilo pspk garu devudu
593	C040566	Roman Telugu	Hate Speech	Audience be like :- Bengu ! Athi bengaku
594	C040574	Roman Telugu	Hate Speech	bhayam laeni vaadu argievy kaadu vadi mundu performance chesina shankar
595	C040582	Roman Telugu	Hate Speech	To be frankly host kante chay chaala humble ga react ayyaru really love his nature
596	C040583	Tanglish	Offensive	Fast forward la pakura madri iruku ... :D
597	C040584	Roman Telugu	Hate Speech	anni kalisi velthe ne 0.5 votes diffrent . Ippdu cm ga unndu ippduendhi meeru peekedhi wait cheyyndi 2024 varaku
598	C040588	Tanglish	Offensive	Sel muruga , rangaraj pandey nee ena panitu iruka
599	C040589	Tanglish	Hate Speech	ivangaluku school dramalaa Amma vesam poota kooda namba matanga.... Public: Ivanga, Amma.,..nee paathe........ Director: aamam puu.,. padam varuma?????......varuuuum aana varaadhu.......
600	C040590	Roman Telugu	Hate Speech	Telugu cinema lu content takuva buildup ekuva. Free ga download chesi chustam free ga
601	C040592	Roman Telugu	Hate Speech	aayana goppavaadani pogidinappudu aayana laagaane meeru kuudaa undaali kadhaa
602	C040593	Roman Telugu	Hate Speech	Akka niku ekkuva inda endi...mata sariga ratle
603	C040603	Tanglish	Offensive	ROFLOL.. Ivan thiruntha matan... Looks like vattaikaran, Villu and atm.. vijay is killing tamil cinema
604	C040609	Roman Telugu	Hate Speech	thu bandhu lu andaru rythulaku echinattu andaru dalithulaku dalitha bandhu estarameeru m ina mee own amount estunnara ma amt make estunnara
605	C040612	Roman Telugu	Hate Speech	RGV tharuvathe evarainaRGV is greater than Rajamouli or anyone else
606	C040613	Roman Telugu	Hate Speech	annaiah kii okka chhaans iddam
607	C040624	Kannada	Offensive	ನಾವು ವಿಶ್ವ ಗುರುಗಳು ...🤣
608	C040625	Tanglish	Hate Speech	view 24 k like 127 k how it's possible ?
609	C040626	Tanglish	Offensive	ha ha ha ha appo naiya thebingala
610	C040628	Kannada	Offensive	ಭಾರತದಲ್ಲಿ ಬರಿ ರಾಜಕಾರಣ ಮತ್ತು ತಮ್ಮ ಮಕ್ಕಳ ರಾಜಕೀಯ ಪ್ರವೇಶ ಮತ್ತು ಹಣ ಮಾಡು ರೀತಿ ಯಾವ ಕಾಯೀಲೇ ಬಂದ್ರೇ ಪ್ರವಾಹ ಆದರೆ ಎಷ್ಟೊ ಹಣ ಬರುತ್ತೆ ಮತ್ತುnಯಾವ ರೀತಿ ಬರುತ್ತೆ ಕೂಳ್ಳೇ ಹೊಡೆದು ಯಾವ ಜಾಗದಲ್ಲಿ ಇದರ ಬಗ್ಗೇ ಯೋಚನೆ
611	C040629	Kanglish	Hate Speech	Jai hind guru nimge ondu super agi madidira Hinta nanna makkalige nanna deshada bagge enu gottu Avarige tiktok Alla nale avaru sattu hogtare alva tiktok nu baralla tamte hodiyakke Janru baralla adannu tiktok madkondu Aram agirli anta tiktok madi kalastare nanna makligennnAll videos super guru nim no send madi
612	C040633	Roman Telugu	Hate Speech	Ravi prakash vunnappudu. Chaala mandhi House lloki. Veylli. Vaalla bed rooms varaku Veyllaru. Chaala mandhi. Jevitaalato. TV9 lanja channel Ani. Chaala mandhi. Cheypparu
613	C040640	Roman Telugu	Hate Speech	anna casino legal cheyandi please anna
614	C040646	Tanglish	Hate Speech	912 dislikes poda poda sura aneels
615	C040650	Kannada	Hate Speech	Tiktokers present situation... nನೋಡುವವರು ಯಾರು ನಮ್ಮ ವೀಡಿಯೋನೂ
616	C040651	Tanglish	Offensive	Trailer mokka... But sk kaga matum pakalam
617	C040656	Tanglish	Hate Speech	mokkai trailer next billa 2 movie
618	C040658	Telugu	Hate Speech	​అసలు ఆంధ్రప్రదేశ్ బిజెపి అధ్యక్షుడు మన ముఖ్యమంత్రే , వీర్రాజు కేవలం తోకమీద ఈక మాత్రమే
619	C040660	Roman Telugu	Hate Speech	jai janasena jai pavankalyan jai janasena
620	C040662	Kanglish	Offensive	Sir ennond sala re release madi dabba nan maklu movie na teligram nalli online nalli bitre yar theater ge barthare sir first film industry navru yalru seri ban madsi film release agi 6 months yalli oragade sigbardhu avagaga nim kasta pattu madiro kelsakke prathipala sigutte movie release agi next day ne mobile nalli bandre jana theater ge hogodilla soo sad
621	C040668	Roman Telugu	Hate Speech	vimarsalu navvutuu sweekarinche vyakti
622	C040677	Telugu	Hate Speech	మోడీ అద్వానీ గారు పెట్టిన బిక్ష పెట్టారు కాబట్టే నువ్వు ఇపుడు ఇలా ప్రధాని స్థానంలో ఉన్నవని మరవకు చాయి వాలా మరవకు గతాన్ని
623	C040678	Tanglish	Offensive	Yena da pubg game ha... Teaser la pearusu onnum illa suriya ji
624	C040685	Tanglish	Offensive	Olunga mariyathiya oodiipoidu therinje nadakura thappaa puthusaa solluraru
625	C040686	Tanglish	Offensive	Dislike pnrathu thooku dhura fans ah thaa iruppanunga
626	C040690	Tamil	Offensive	மிஸ்கின் உண்ணையும் எண்ணெய் ஊற்றி கடுகு உளுந்த பருப்பு ரெண்டும் சேர்த்து தாளி தாளி தாளிக்க பாேறான சின்ன சுடலை
627	C040692	Roman Telugu	Hate Speech	Neelanti vallu valla nijame ayina devunuki avamanam jarukutundhi
628	C040693	Tanglish	Offensive	Ellarkum onnu soldran inime sor akku kolambu vaiyu sonna Othaa! ( Santhanam's hidden message is amazing)
629	C040697	Tamil	Hate Speech	நான் ஏற்கனவே சொன்னது தான் ஒருவன் சிக்கரம் பிரபலம் அகனும்னா எங்க தலைவர் கிண்டல் செய்வானுகோ. கடந்த சில காலாமா நடக்குது. அப்பறம் நாங்கா ரஜினி ரசிகர் சொல்லுவானுகோ. லிங்கா படத்திற்கு பால் அபிஷேகம் பன்னுனே சொல்லுவாங்கோ. அப்போ நாங்கோ பில்லா இருந்து ரசிகர்டா பொறும்போக்கு. எங்க தலைவர் உங்க மாதிரி கேவலமான ஜென்மகளே கண்டுகிறது இல்ல.
630	C040701	Roman Telugu	Hate Speech	first aa ammai family ki security ivvandi night night emaina jaragochu
631	C040711	Kannada	Offensive	Sonu ಸೂಪರ್ ಕಮೆಂಟ್ ಕಣ್ಲಾ.... ನಿನ್ commentನ ಆ Italy Ravindra Lowda ಹತ್ ಸಲ ಓದಿದ್ರೂ ಅರ್ಥ ಮಾಡ್ಕೊಳ್ಳೋಕ್ ಆಗಲ್ಲ....
632	C040716	Tanglish	Offensive	0:25 ennadaaa panraa.... 🤣 🤣 🤣 Acting ah da adhu🤣🤣
633	C040719	Tanglish	Offensive	Romba mokka ya irukku teaser...... i'm ur biggest heater da viggu thalaiya...... buy rava biggest flop aaga vaalthukkal
634	C040722	Tanglish	Offensive	Enna da elarum Vanda. Vandaya kilicha aprom trend aagudhu sun pictures kekadha kadhuku headset ah
635	C040723	Roman Telugu	Hate Speech	anil kumar gaaridi tappaledu conny ilanti samasyalu kuudaa rashtramlo unnayi ani baagaa teliyajesaaru
636	C040727	Tanglish	Hate Speech	Nkp +visvasam =asuran music... sariyaana mokka avlo worth illa trailer
637	C040728	Tamil	Offensive	உனக்கு வந்தா இரத்தம் எனக்கு வந்தா தக்காலி சட்னியா பொங்கடா
638	C040729	Roman Telugu	Hate Speech	vaegamgaa vachinavaadidi tappa
639	C040730	Roman Telugu	Hate Speech	jagan oka pandi kukka gadu AP ni sankanakinchadhu
640	C040741	Tanglish	Offensive	first like poduvom next video va open pannuvom... ethu sethu anna video ku mattum than
641	C040743	Roman Telugu	Hate Speech	Arey shankar lanti lucha galani namadhu vadu trs kukka
642	C040748	Tanglish	Offensive	Inime Vijay Fansku Zoomaka Zoo Than
643	C040749	Tanglish	Hate Speech	Those 8.4K dislikes are 80's Ranjini fans.. 🤣🤣🤣
644	C040752	Tanglish	Offensive	Vayasukku thagundha kelvi ya kekka sollunga da
645	C040755	Tamil	Offensive	ஒம்மால வீர வன்னியர் குல ஷத்ரியன் திரெளபதி படம் வெற்றி பெற வாழ்த்துகள் தெரிவித்த அனைத்து சமுதாய நண்பர்களுக்கும் நண்றி
646	C040758	Roman Telugu	Hate Speech	super medam baagaa chepparu
647	C040765	Tanglish	Offensive	1:22 enaya thalaye ilama oruthan kulichtrkan
648	C040774	Roman Telugu	Hate Speech	andaruu otlu register chesukondi mitrulara ootu pharr janasena party oka avakaasam ivandii pawan kalyan anna ravali palana marali
649	C040775	Tanglish	Offensive	Adei nalla remake(copy) pandra da Thala illa thatha
650	C040778	Tanglish	Offensive	Any one after Sirikki Promo...
651	C040780	Tanglish	Offensive	Ananthi ooda dialogue delivery aapaaa , kudumbothoda saenthu naduroadla ninnom nu vaichukaiae , etho laegiyam vikiramaathri irukku
652	C040783	Roman Telugu	Hate Speech	asalu haaran kottakapothe train ippatlo raadani ardham
653	C040788	Telugu	Hate Speech	ఏకిలి సన్నసిలగా నవ్వు ఎందుకు
654	C040794	Roman Telugu	Hate Speech	PK navu janmmalo ward member kuda Kaledu
655	C040797	Roman Telugu	Hate Speech	manushullo nallaga unna vaarini muddugaa nala bangaaram ani pilustaaruantegaani erra bangaaram ani ekkada pilichina daakhalaalu laeva
656	C040819	Tanglish	Offensive	Bgm is not powerful like vada chennai
657	C040820	Roman Telugu	Hate Speech	turning teesukuna vadihi
658	C040823	Roman Telugu	Hate Speech	chillar party lu Anne okkatyna modi ji ni next pm modi ji yogi baba ni
659	C040834	Tanglish	Hate Speech	Apppidi onnum perusa mass ah illaye ppaa
660	C040837	Tamil	Offensive	எனக்கு தான் புரியலையா 🤔🤔🤔 இல்ல மத்தவங்களுக்கும் அப்படிதான
661	C040838	Roman Telugu	Hate Speech	kaavalani taagistunnaavu kadhaa roja
662	C040844	Tanglish	Offensive	Siva va ninacha dhan bayama iruku... Ajith ah vachu senchu irupanoo nu
663	C040848	Roman Telugu	Hate Speech	ekkada pattukunnare talliaame kuudaa vellipoyindi dongalu paaripoyaaru gaa
664	C040852	Roman Telugu	Hate Speech	rohith bondam gadu ballu anni dengesadu vadi valle match poyindhi
665	C040857	Tanglish	Offensive	73k dislike.. evanda adhuu dislike pannathu
666	C040858	Tanglish	Offensive	Nice But pesura dialogue onnum puriyala romba unnipa ketka vendieruku... Music over loaded
667	C040862	Roman Telugu	Hate Speech	ee movie theatre loo chudakapothe tarvaata mere feel avutaaru excellent movie
668	C040863	Tanglish	Offensive	Ama padichavan vanda mattum vote potruvanungee....eche tamil makkal...vote poduvaan paaru kanimoli...karti chidambaram...tr balu...a raja...dayanadi maran. Ivange laam MP aam....thuu
669	C040867	Kannada	Hate Speech	ಆದ್ರೆ ಚೀನಾ ಗೇ ಬಕೆಟ್ ಹಿಡಿತಾರೇ
670	C040869	Roman Telugu	Hate Speech	NA MODDALA mallanna
671	C040870	Kanglish	Offensive	Yalla sule makkalu jasti thu
672	C040872	Roman Telugu	Hate Speech	Punch veyyalantaySunil anna tharuvathayeeyavarina
673	C040879	Roman Telugu	Hate Speech	idhee oka plan prakaram jariginattu undhi bhale seen
674	C040884	Tanglish	Offensive	Shakthimaan picture uh paathathum yaarukellam goosebumps moment aacho avangellam keezha irukka button uh blue aakungha
675	C040894	Roman Telugu	Hate Speech	veellani nettese vadevado chudali
676	C040895	Tanglish	Offensive	Enga da enga VJS ... Rajini ya mattume kamikiringa...
677	C040903	Tanglish	Offensive	Dis like itha trailer ku enna koduma ....🤒
678	C040909	Roman Telugu	Hate Speech	late ina parledu movie mamuluga vundakudadu movie
679	C040919	Tanglish	Offensive	ennada ithu you tube trendingla kooda illa 🤣🤣
680	C040922	Kannada	Offensive	ಹೊಲಸ ರಾಜಕಿಯ ದಿಂದ ನಮ್ಮ ದೆಶ ಅದಕ್ಕೆ ಹಿಂದ ಉಳಿದಿದೆ
681	C040924	Tanglish	Hate Speech	Konnar kothinga edutha movie ah athan ippidi irukku..
682	C040932	Telugu	Hate Speech	ఇక్కడ పట్టుకున్నది పోలీస్ వాళ్ళు కాదు Forest Deparment వాళ్ళు
683	C040934	Roman Telugu	Hate Speech	phone cut chesthe inca yavaritho mataladestam ani ami lekha poina chepu chepu ani road avutaaru edhi fact
684	C040935	Kannada	Offensive	ಕ್ರೇಜಿ ಸ್ಟಾರ್ ರವಿಚಂದ್ರನ್ ಸ್ಟೈಲ್ ಮೇಕಿಂಗ್ ಕಾಪಿ
685	C040936	Kannada	Offensive	Parthasarathi ನಂದಿನಿ ನಿಮ್ಮ ಅಪ್ಪ ನಾಮರ್ದ ಅಂತೇ ಹೌದೇನೇ
686	C040937	Roman Telugu	Hate Speech	kcr dhi barrey karrey mukku vadu waste pm ki
687	C040938	Kanglish	Hate Speech	Nivella aa Udyonmukhi Rajakarani kadeyavara
688	C040939	Tanglish	Offensive	yarellam #bigil trailer ku wait pandringa ????
689	C040940	Telugu	Hate Speech	మేడమ్ మీలాంటి వారు ఈ సొసైటీకి కావాలి
690	C040945	Tamil	Hate Speech	கமெண்ட் படிச்சி பாருங்க... அத்தனை சாதிகளும் மாபெரும் ஆதரவு கொடுக்குறாங்க... அப்போ அந்த ஈத்தரைகள் அத்தனை சாதி ஆட்களிடமும் வாலாட்டி உள்ளனர்... நாம் ஒண்றினையவே இப்படி ஒரு படம் வருகிறது என்று தோன்றுகிறது...
691	C040949	Tanglish	Offensive	Vijay sir u r welcome. .. Chaa gaye sir
692	C040950	Roman Telugu	Hate Speech	Meeru emi chestunnaru.sollu matalu tappa
693	C040952	Tanglish	Offensive	Enada ithu viswasam one day la pana views and likes...ithu moonu naal agiyum thandala
694	C040958	Roman Telugu	Hate Speech	Charmi ki Edo ayindi navvaleka sachipothundi
695	C040963	Tamil	Offensive	Commemts லாம் படிங்க...முதல் முறையாக மொத்த தமிழ் சாதிகளும் ஒன்றாக இணைந்து குருமா தேவுடியா பயனை எதிர்க்கிறது பார்க்கவே ஆனந்தமா இருக்கு
696	C040969	Roman Telugu	Hate Speech	Lanjakodukullara mellaga chusukoni pondi ra. Lanjakodukullara
697	C040972	Tanglish	Offensive	everything good.. but that WIG hair style is so annoying... thu.. evolo selvu pani film edukureenga, iddha paka matingala da dei.. Vijay pakka kandraviya irukaru.. oooowwwwww
698	C040979	Tanglish	Hate Speech	Rajini eppa da 1996 la Arasiyalukku varaen nu sonnaan?? DMK alliance ku support thaana pannaan?? Kirukku payalungalaa... Padam nakki kittu thaan poga pogudhu paarunga...
699	C040988	Roman Telugu	Hate Speech	Meru enni kathalu padda kcr 100% next cm of telangana, cheap interviews with cheap abn rada krishna
700	C040990	Tanglish	Offensive	Hats Off Thalaiva... rajith nai mattutha padam yaduppana? Nanum Viluppuram Da. #kshatriyan
701	C040991	Kannada	Offensive	Parthasarathi ನಿನ್ ತುಲ್ಲುತುಮುಕೂರು ಹೈವೇ ಅಲ್ಲಿ ಎಲ್ಲಿ ಹೇಳೋ ಮಿಂಡ್ರಿಕೆ
702	C040993	Roman Telugu	Hate Speech	idini gelipinchina voters nizanga medhaavulu
703	C040994	Tanglish	Hate Speech	Oru nalla actor ah pomma maari bigil la ukkara vachutingale da
704	C041004	Tanglish	Hate Speech	Dai idhuve meedhi kaasu dhanda
705	C041005	Roman Telugu	Hate Speech	pony andhrapradesh kuu separate currency note petty notlu guddu jagan anna gandhi gaari photo badulu nee photo pettu anna
706	C041006	Roman Telugu	Hate Speech	madhusudhan anna assembly ayina biota ayina mea speech kii memu eppatikee abhimaanulame
707	C041010	Roman Telugu	Hate Speech	mamaluga undadu marry nter anthe
708	C041011	Tanglish	Offensive	Review pathutu varavan lan inka like ah podu
709	C041013	Roman Telugu	Hate Speech	evvaru cheyyaleni goppa pani meeru chesaranna meeru great anna
710	C041015	Tanglish	Offensive	Konjam othingiri.....(viswasam)oodi pathingiri varathu thalaivaru petta....
711	C041022	Tanglish	Offensive	dislike potta thevudiya pasangaluku kolandha porakaadhu
712	C041028	Tanglish	Offensive	Director Korean series Rombo parparnu nenaikraen
713	C041031	Tamil	Offensive	ஏல ரன்ஜித் நாய இனி நி படம் எடுல பாப்போம்
714	C041037	Roman Telugu	Hate Speech	chaalaa santosham tappuni telusukoni swachchamaina manasu tho matladutunnaru manchi maarpu
715	C041038	Roman Telugu	Hate Speech	Inka aapuuuuuu
716	C041041	Tanglish	Hate Speech	YouTube sengirichi vijay fans ku pawam da kabali record break Panna dream panni ellam waste dai Thala yai varanum record break panna, record create pannayum
717	C041042	Tanglish	Offensive	Intha Karmathuka dha ivolo Build up ahh...Bwahahaha
718	C041047	Tamil	Hate Speech	பெண்கள் மீது வஞ்ஜகமாக கைய வைக்கறவன் எந்த சாதிக்காரனா இருந்தாலும் அவன் தலை தரையில உருளனும்.....நான் நடராசக்கவுண்டர்
719	C041051	Tamil	Offensive	வேசி மகன் தேபை திருமாவளவன் திரைமரைஉக்கு பின்னால் சொல்லும்போது உங்கலுக்கு இனிக்கிரது. அதனை ஒருவன் வெளியில் சொன்னால் வளக்குதா...
720	C041066	Telugu	Hate Speech	ఆ ఎక్స్ప్రెషన్స్ చూడు తన ఆస్తి కొట్టేసినట్టు జీవితం ముగిసినట్టు ఈ దరిద్రం రా బాబు
721	C041070	Kanglish	Offensive	formals nin amman yako lowda nkn dboss tus patakinin obba sule maga
722	C041075	Roman Telugu	Hate Speech	anna next movie inca gattiga kottali all dhi best
723	C041080	Roman Telugu	Hate Speech	super gaa chepparu like aaa teacher good nouledge
724	C041084	Tanglish	Offensive	Yaaruda moonsooru vaayana joke ku edukkirathu santhaanam illathathaala intha moonsooru vaayanta mokka comady ya paarka vendiyatha irukku 🤮🤦‍
725	C041086	Tanglish	Hate Speech	3k likes got reduced... Seems like some haters disliked again andha bayammm🤣🤣
726	C041087	Telugu	Hate Speech	ప్రతి తండ్రి కోరుకునేది ఇదేజగమెరిగిన సత్యంమీరు సాధించారు అదృష్ట వంతులు మీరు
727	C041093	Tanglish	Offensive	yellathukum antha bharani paiyan than kaaranam
728	C041094	Roman Telugu	Hate Speech	super anna jai pawan kalyan jai janasena next cm pawan kalyan gaare
729	C041098	Tanglish	Offensive	Amma Jayalalitha biopic nu sollitu Kuttiamma Deepa getup potrukeengale da
730	C041108	Roman Telugu	Hate Speech	aayana kcrku petrol antundu neenu aayana bidda pelli chesina antunnav raajakeeyam addam pettukuni dochukune nayakula
731	C041110	Tanglish	Offensive	ponda movene onikki soothadichi sunnnampu thudavanum jeppapaaru irukethu, oakithu ennukiddu parathesi ithu entha copy or suddathi neeyellam... poda poda
732	C041113	Tanglish	Offensive	3.4k disliked ivanunga elam hari padam pakuravanunga pola
733	C041114	Telugu	Hate Speech	కళ్యాణ్ రామ్ గారి జీవితంలో మర్చిపోలేని అద్భుతమైన సినిమా ఈ బింబిసార
734	C041116	Kanglish	Offensive	bro first avnge BOSS spelling kaliyol heli odok asayya agutte
735	C041126	Roman Telugu	Hate Speech	Logically what u said is exactly right Appreciated the way you explained the concepts of government and other way of ruling Good Keep it up dear
736	C041138	Kanglish	Offensive	MONSTER_KANNADA guru Bari mathadak aste yav sule makligu munde bandu mathadastu dhum Ella BOSS always King
737	C041140	Tanglish	Hate Speech	Trailer 4.00 mins🤦 padamey upload panirukalam
738	C041143	Tamil	Offensive	எப்படிடா இந்த சாய் பல்லவியை ரசிக்கிறிங்க? கன்னம் முழுக்க ரத்த காயம் பட்டது போல் உள்ளதே? யாராவது ஒரு நல்ல ஆன்டி பயாடிக் கிரீம் ஒன்றை இந்த பெண்ணுக்கு கொடுங்க.
739	C041144	Tanglish	Offensive	Dei.....Vj sethupathy ku ena da promotion ae ila...Vedha alavuku kooda mass ilayae da
740	C041145	Roman Telugu	Hate Speech	vadu donga nuuv yadava
741	C041146	Telugu	Hate Speech	ఎవడి స్టైల్ వాడిది దేవరకొండ స్టైల్ దేవరకొండ ది అంతే ఇంట్లో తప్పేముంది వినిపిస్తుంది చెప్పనా
742	C041149	Roman Telugu	Hate Speech	dandalayya dandalayya mathone nuvvu undaalayya
743	C041152	Roman Telugu	Hate Speech	movie aithe chaala ante chaala baagundi part 2 kuuda twaragaa vacchi gaana vijayam sadhinchali thank you kalyan raam garu and vashishta garu chaala baaga teesaaru ituvanti kotha kotha movies inca enno cheyyaalani manaspuurtigaa korukuntunnanu
744	C041162	Tamil	Offensive	இது 96-சு.. யாரை ஏமாத்துறீங்க?' மிஸ்டர்.ஆன்மீகப்பரட்டை டோட்டல் டேமேஜ்.
745	C041163	Telugu	Hate Speech	Dr YNM1 month agoఇందులో మనం పెద్దగా ఆలోచించాల్సిన అవసరం లేదు అంతా కాలం మహిమఏదో ఒకరోజు కాలం ఆయనకు ఇవ్వవలసిన గిఫ్ట్ తప్పకుండా ఇస్తుంది చేసిన కర్మలు అనుభవించక తప్పదు సోనియా గాంధీ అయినా మోదీ అయినా చంద్రబాబు నాయుడు అయినా జగన్ అయినా కాలం అంతే
746	C041164	Telugu	Hate Speech	కరోనా వచ్చి జనాల్ని ఒక రకంగా సంపుతుంటే.
747	C041166	Tanglish	Hate Speech	#BoycottComali #BoycottComali #BoycottComali #BoycottComali #BoycottComali #BoycottComali #BoycottComali #BoycottComali #BoycottComali #BoycottComali #BoycottComali #BoycottComali #BoycottComali #BoycottComali #BoycottComali #BoycottComali
748	C041168	Roman Telugu	Hate Speech	indian army nee chuusi ee raajakeeya paarteelu neerchukoevaalisina oka vishayam undhi mmg gunn mandir masjid gurdwara kii kii jai…
749	C041175	Roman Telugu	Hate Speech	odipoyina kuudaa rajagopal reddy komatireddy oka warrier
750	C041180	Telugu	Hate Speech	అభివృద్ధి సంక్షేమం రెండు చూడగల చంద్రబాబు వల్లే రాష్ట్రనికి మంచి జరుగుతుందనేది ముమ్మాటికి నిజం
751	C041181	Kanglish	Offensive	Rakshith is copy paste star full remake madalla alli alli copy madatane
752	C041182	Roman Telugu	Hate Speech	virat vs rohit endi beyvaallu bagane unnaaru meeru penta cheyyakandi trp kosam
753	C041184	Tanglish	Hate Speech	Wow wow wow wow wow thalaivaaaa
754	C041185	Roman Telugu	Hate Speech	daya chesi okka chance evvadi pawan kalyan gaariki am frame benglur
755	C041186	Telugu	Hate Speech	దీనమ్మ రోజ ని ఎవడికైనా చూపించండి రా
756	C041189	Tanglish	Offensive	samma mokka trailer and am not a vijay fan
757	C041194	Tanglish	Offensive	Yarellam annamalai theme ketinga anirudh adha ketu indha filmla adichirkaru
758	C041197	Tanglish	Offensive	Kamla hasan is a ass hole
759	C041207	Tamil	Offensive	நீ போடா புண்டைபடம் ஓடாதடா உங்ககிட்ட ஆண்மையே இல்லடா அதனால் தான் டா அவ்ளோ தான் எங்ககிட்ட வராங்க
760	C041215	Tanglish	Offensive	81k views 89k likes YouTube be like WTF
761	C041216	Tanglish	Offensive	Poda vennai ga la Vikram fans ellarum jathi veri pudicha va ga. Palla thayoli ga
762	C041222	Tamil	Hate Speech	கடைசில சும்மா தொங்கினு இருந்த பல்ப ஒடைச்சிட்டானுங்க.
763	C041224	Tamil	Offensive	கிறுக்கு கூதிக்கு உண்மையிலேயே கண்ணு தெரியலையேன்னு பார்த்த.படத்துல கூட கண்ணு தெரியலா
764	C041245	Roman Telugu	Hate Speech	meerante naaku chaalaa abhimanam ishtam pawan kalyan bavagaru jeevitamlo okkasaraina meeku daggaragaa second ivvaalani naa aasha
765	C041246	Roman Telugu	Hate Speech	shree chaitanya sports encourage chestundi antey naaku namadam kashtam gaa undhi
766	C041253	Roman Telugu	Hate Speech	array meeru puurugullu patti poetaaru raa maa vidi anna support cheyandi
767	C041265	Tanglish	Hate Speech	Ena da pani vachurukenga AMMA va????.
768	C041271	Tanglish	Offensive	I am Vijay fans but kaithi supmovie
769	C041277	Telugu	Hate Speech	అచ్చం అమ్మ లాగే వుంది
770	C041278	Kanglish	Offensive	Stupid Fanslo gaandu thulle school ge henu raja kottavra child nan magane balegara fanu hogu school ge hogi hodkondiru sumne yake baiskothiya
771	C041280	Tanglish	Offensive	Indhar hero edhu pannalum siripputhan varudhu... telugu herova pathu copy adichu appadiay nedikiradhu... vijay tamil herova kidaiyadhu telugu hero... pl. ivara poi adutha superstarnu solli andha perukku undana getha kuriakadhinga... rajini vijay ivanga rendu peruma inima edha character pannalum cinemala edu padadhu.. kabali flop... next bairava flop...
772	C041286	Tamil	Offensive	Psycho Review : கை அடிச்சா யாருக்கும் தெரியாம அடிக்கணும். இல்லனா டீச்சர் உன்ன அடிப்பா. அப்புறம் நீ psycho ஆயிட்டு போற வர பொண்ணுலாம் புடிச்சு கொலை பண்ணுவ !!
773	C041304	Telugu	Hate Speech	కొట్టకుండా ఇంతసేపు మాట్లాడిన యాంకర్ కి నమస్కారాలు... చూసిన మనకి పిచ్చి పరాకాష్ట
774	C041305	Roman Telugu	Hate Speech	super gaa vundhi drama camen peepul nee sir ani kuudaa antara oo mai gaad this is team work guys
775	C041307	Tamil	Hate Speech	அந்த நாய்ங்க அவ்ளோ worth இல்ல.பொண்ணுங்க கிட்ட இனி வந்தாவே வெட்டனும்....
776	C041308	Tanglish	Hate Speech	1st day pakaala nenacha feb 14 release apa veliya pona v2la santhaego vabthuro
777	C041309	Roman Telugu	Hate Speech	jai komati reddy brothers
778	C041310	Tanglish	Offensive	Thala yaavathu thalapathy yaavathu Vijay sethupathi thaan mass!!!
779	C041317	Roman Telugu	Hate Speech	Kcr na madda chesindu rs
780	C041319	Kanglish	Offensive	Karnataka ke bandu Kannada matadidna ane guru sullu avnu sooside madko bahudittu alvaa fake news
781	C041329	Roman Telugu	Hate Speech	Modda lo comedy
782	C041344	Kannada	Offensive	ಒಂದೊಳ್ಳೆ ಚಿತ್ರಕ್ಕೆ ಈ ರೀತಿ ಚಿತ್ರಮಂದಿರ ಸಮಸ್ಯೆ ಆಗಬಾರದು
783	C041347	Roman Telugu	Hate Speech	aahaa aevee aarojulu eekaamedee chuusii ennaallu ayinado
784	C041352	Roman Telugu	Hate Speech	chaalaa ante chaalaa baagundi brow
785	C041361	Tamil	Offensive	Vijay fans like here Ajith fans like here poyi...நாடாரகள் like here கவுண்டர்கள் like here nu poidumo
786	C041364	Telugu	Hate Speech	ఎక్కడ వెంట్రుకలు ఉంటే అక్కడ పిక్కో
787	C041367	Kanglish	Offensive	Ah allu raghu ge forward madbeku e video bari nigradavne
788	C041370	Tanglish	Offensive	Dai intha mathirila padam edukathingada bayama iruku daa
789	C041371	Kanglish	Offensive	Guru avrkina nine over agi adta idiya
790	C041373	Tamil	Hate Speech	சாதிகள் இல்லையடி பாப்பா அப்போ தனித்தொகுதி எதுக்கு என்று கேளடி பாப்பா
791	C041377	Kanglish	Offensive	Onde ond cmnt ketudag idre torso childe🤣🤣nNamdu olle respected family nimdeno gotila...modlu tilkond helu bayig bandang helak nangu barutte...nan hesru katkond ningen agbeku
792	C041379	Tanglish	Offensive	vijaysrthupathy ku padathhula role irukka illayaa da... yenda ipdi pandringa.. but thalaivaa nee vera level.. gun ah suthhi utta paaru .. pori kelambudhu....
793	C041382	Tanglish	Offensive	Oruthar mela neenga #Viswasam kaatradhukkaga, Innoruthara yean asinga paduthuringa ..
794	C041384	Roman Telugu	Hate Speech	music chaalaa chaalaa baagundi
795	C041392	Roman Telugu	Hate Speech	meeru aa sthaayilo undi kuudaa mea snehituni parichayam cheyadam anandakaram
796	C041393	Tanglish	Offensive	Trailer laye SK ku dialogue kammi ah than iruku,...So,Intha Padam kandipa Odidum da....
797	C041408	Kannada	Hate Speech	ಅವಾಗ ಕಬ್ಜ. ದರ್ಶನ. ಇವ್ರೆಲ್ಲಾ ಬಂದು ಕೆಡವಕ್ತಾರೆ.
798	C041410	Tanglish	Offensive	Padaiyatchi nu sonna mattum ungalukku jaathi veri nagi reddi settiyar mudaliar nu sonna adhu jaathi veri illaya
799	C041412	Telugu	Hate Speech	ఏం అనుకుంటున్నావు అంకార్....రగన్న ఉప్పు కారం తింటలేడు అనుకున్నావా
800	C041413	Tanglish	Hate Speech	It looks like a animated movie
801	C041421	Tanglish	Hate Speech	Yannada trailer ithuuuu......yandaaa koluthinkaaaa.......thalaiveee STR manithan *Vijay sethuphathi*......
802	C041430	Kanglish	Offensive	Hoooo Tik tok ban
803	C041431	Telugu	Hate Speech	మళ్ళీ మళ్ళీ రిపీట్ చేస్తూ చూస్తున్న వాళ్లు ఎంతమంది ఉన్నారు
804	C041434	Tanglish	Offensive	Antha Bike ah Bhavesh Joshi kitta thiruppi kuduthurunga.. apdiye antha Mask ah namma Krish kittayum kuduthurunga... suyama sinthingappa..
805	C041436	Telugu	Hate Speech	Anna నువ్వు దానం చెయ్యకపోతే చెయ్యకు దానం చేసే వారిని చడాకొట్టకు
806	C041440	Roman Telugu	Hate Speech	rr garu manchi nayakudu
807	C041444	Kanglish	Offensive	Nimman kelu adna
808	C041445	Roman Telugu	Hate Speech	Anna assalu yevvaru nuvvu different ga try chesav famous iepoyav Nuv Super Bro
809	C041453	Roman Telugu	Hate Speech	Anthey dhonga mundalu alane chestharu.... Only money chustharu
810	C041454	Roman Telugu	Hate Speech	chanti pillodu matladithe oka tandri elaa murisipotado alaa undhi chiru paristhiti
811	C041456	Tanglish	Offensive	Daii pink padathula fighta varathu AJITH DOES NOT SUIT AMITA BACHAAN
812	C041459	Roman Telugu	Hate Speech	Prabhas ki elanti cheep unnanduku chala badhaga undhi
813	C041467	Roman Telugu	Hate Speech	hea harshahappi vinayaka chaviti life long nuv happy gaa undalaniaa devunni korukuntunna saime gaad bless u harsha
814	C041469	Roman Telugu	Hate Speech	Induke mimmalni YCHEEPI chavata sannasulu andi
815	C041471	Tanglish	Hate Speech	naraya 90s kids innum ippidi dhan irukkom, yenna dhan 2019 aanaalum naange ippovum 90s le dhan irukkom. I am a Proud 90s kid.
816	C041472	Tamil	Offensive	டே YouTube 2 days enkada iruntha....fraud.....
817	C041473	Kanglish	Offensive	Kalki you only say brother your name is kalki no then say
818	C041476	Tamil	Hate Speech	மணிரத்னம் காட்பாதர் படத்த காப்பி அடிச்சு நாயகன் படத்த எடுத்தது பழைய கதை, செக்கசிவந்தவானமும் அதே காட்பாதர் காப்பிதான் என்பது புதிய கதை...
819	C041477	Telugu	Hate Speech	ఇలాంటి b grade acting లకు మాత్రమే పనికి వస్తుంది
820	C041478	Telugu	Hate Speech	దానినే హుందాతనం అంటారు
821	C041482	Tanglish	Offensive	When hearing negative about Petta or Rajini, fans will be like.. Kola kaandula iruken odi poiru..
822	C041484	Tamil	Offensive	ஏன்டா இப்புடி ? இந்தமாதிரி படங்களை ஈழத்திலை திரையிடாதீங்கடா ! நீங்க அடிச்சிகிட்டே சாவுங்கடா ! நம்மள வுட்டுருங்க ! முடிஞ்சா தனியாக போராடி வெல்றோம் இல்ல செத்தொழிஞ்சு போறோம் ! உங்கள நம்பி பிரையோசனம் இல்ல
823	C041499	Tanglish	Hate Speech	Dey ethana ajith vanthalum ethana vijay vanthalum ivaru kita kuda neruga mudiyathu daaa
824	C041501	Tanglish	Hate Speech	Ajith fans poghi tukku mattu savungalda
825	C041502	Kanglish	Hate Speech	Allige Ella beda just ondhu rally attend madli
826	C041506	Roman Telugu	Hate Speech	edhee emaina vrudhaapyamlo nter gaari avasaram mea jeevitaanni cheekati bilam chesindi
827	C041508	Tanglish	Offensive	Andha 44k dislikes panna potta pasangala yen poola vandhu oombungada
828	C041509	Tanglish	Offensive	Adei ** trailer ku ethukuda Advertisement??
829	C041510	Roman Telugu	Hate Speech	Cinema karchulakantey ee karchule ekkuva papam producers ki
830	C041517	Tanglish	Offensive	Gommaale haters appidiye vandhu Mandi pottu oombungadaaw thevudiya pasangalaa...
831	C041519	Tanglish	Offensive	Thala Kola maasss..!!! Ingayum sila Echa naaiga vanthu.. less views.. less likes, nu kadharitu irukanuga.. potta pasanga...
832	C041525	Tamil	Offensive	கோமாளி ரவி அவர்களே... அடக்கி வாசிக்க கற்றுக் கொள்ளுங்கள்
833	C041527	Roman Telugu	Hate Speech	rgv ki siggu ledhu ammail ni oka sex doll laga choostahru
834	C041528	Tanglish	Offensive	Trailer laam nalladhaan iruku.. But padam tha mokkaya irukum nu nenaikaren... Neraya Korean padam pakadha ya nu sonna kekriya...
835	C041531	Tanglish	Offensive	Kotha trailer ah da idhu.Idhu theriyama Enka Thalapathy kooda Indha director sernthutane... Thalapathy image damage panna poran mattum theriyudhu....
836	C041538	Tanglish	Hate Speech	Avunga seira athae thappa neengalum seithu makkalin aamaithiya kedukaringa...
837	C041540	Tanglish	Offensive	Otha Vera level dei ellamey semay da yeppa
838	C041545	Roman Telugu	Hate Speech	poori sir liger movie block baster meeku all they best sir
839	C041549	Kannada	Hate Speech	ಇಬ್ಬರು ಕಳ್ಳರೇ
840	C041553	Roman Telugu	Hate Speech	kcr garu meeku vunna dhairyam loo 1 ayina ap cm kii vunte bagunde
841	C041557	Tanglish	Offensive	Ennadaa .. karunanidhi biopic madri irukku
842	C041563	Tanglish	Offensive	Dislike ethuku da poduriga . Teast ellatha people...
843	C041567	Tamil	Hate Speech	இரண்டு மாஸான தமாஸ் காட்சி இருக்கு.மனசுவிட்டு சிரிங்க....கோபம் பகை அடுத்தவர்களை திட்டுவது (இருவர் திட்டிகொள்வதில் அசிங்கப்படுவது நம் உறவுகள் மட்டுமே இது அவர்களுக்கு தெரிந்தால் ????? )
844	C041570	Roman Telugu	Hate Speech	Anna I want to say one thingu say mindblowing truths love u brother keep it up I really proud of you bro
845	C041573	Tanglish	Offensive	Seth'a sanda potu saganam mass dilouge .....
846	C041580	Tanglish	Offensive	Sasikumar irukaru ,,,appo idhu devar samuga padama ?
847	C041582	Tanglish	Offensive	Sk out from safe zone movies
848	C041589	Tanglish	Hate Speech	Amma irunthirunthal teaser YouTube la kooda odirukkathu
849	C041592	Roman Telugu	Hate Speech	Pk Power supplylo meru okka star
850	C041593	Tamil	Hate Speech	அடப்பாவிங்களா ஜாதியை ஒழிக்க ஜாதிய படங்கள் நீங்க பேசாமல் அமைதியாக இருந்தாலே போதும் ஜாதி மக்கிபோகும் இருந்தாலும் வன்னியனாக என் வாழ்த்துக்கள்
851	C041595	Roman Telugu	Hate Speech	Pilla pu AAthulu
852	C041598	Roman Telugu	Hate Speech	manchi pani chesaaru
853	C041600	Tanglish	Offensive	Al vijay oru kathaiyavathu sudama edukarana papom
854	C041603	Roman Telugu	Hate Speech	bhaiya ilanti vaadini 5 nimishaalu tatukovadam kashtam kaani nuvvu 45nimishaalu veediyo chesavu nuvvu great
855	C041607	Roman Telugu	Hate Speech	Bro vere yavaru doraka ledha ee pandi mokamdi dorikindha
856	C041609	Roman Telugu	Hate Speech	heyy firoze bhaiseeta ramunni annapudu nuvvu veediyo pettaledu apudu matladaledu
857	C041611	Telugu	Hate Speech	ఓమ్మో నీ నటనకి ఆస్కార్ అవార్డు కూడా తక్కువేమాటల మాంత్రికుడు మల్లయ్య
858	C041613	Telugu	Hate Speech	అన్నీ ప్రభుత్వ వ్యతిరేక వార్తలే సామాన్యుడి కి ఈ వార్తలు చూస్తేఆత్మ హత్యే శరణ్యం అనిపిస్తుంది
859	C041615	Tanglish	Offensive	Petta fans like here Super star nale summa adhurudhula
860	C041616	Tamil	Hate Speech	அடேய் இப்ப தாண்டா எனக்கு நிம்மதியா இருக்கு யாருடா அந்த இரண்டு லட்சம் லைக் போட்டாங்கன்னு பார்த்தேன் டா வின் டிவி கிஷோர் சாமி உங்க குரூப் தானா. தப்பு செய்றவன் மட்டும் தாண்டா தண்டிப்பார்கள் என் தமிழ் மக்கள். இப்படி எல்லா தலித் மக்களை ஒதுக்கி வைக்க மாட்டாங்க யாரையும் குற்றம் சொல்ல மாட்டாங்க. ஒரு மூணு லட்சம் பேர் இருக்காங்க இந்த மாதிரி... பெண்களை காப்பாற்றுவேன் என்று சொல்லிட்டு அவர்களை எடுப்பார் கைப்பிள்ளையாக அசிங்கம் படுத்துகிறீர்களாட
861	C041619	Roman Telugu	Hate Speech	expression em vundavu antiki same expressions
862	C041628	Telugu	Hate Speech	అవి తొడల మెట్రో పిల్లర్ల అంతున్నాయి
863	C041635	Tanglish	Offensive	Entha pundaigalam dislike pannano avanlam manasukulla kumururan alungada alunga...
864	C041649	Kanglish	Offensive	kumarab nan ning alla guru helidhu....
865	C041650	Telugu	Hate Speech	మన తెలంగాణాలో మన నాయకుల బాషా చాలా chiller gah vuntadhi.అయ్యో దేవుడా.
866	C041656	Roman Telugu	Hate Speech	ninnu kolpovadam maa duradrushtam maa paedala hrudayamlo eppatiki
867	C041657	Telugu	Hate Speech	హిందుత్వం బతకాలి అంటే మాకు రాజా సింగ్ లాంటి నాయకులే కావాలి జై శ్రీరామ్ జై మోడీ జై బీజేపీ జై రాజా సింగ్
868	C041660	Roman Telugu	Hate Speech	hanu raghavapudi love story ante super immersive gaa untadi
869	C041667	Tamil	Hate Speech	அனைத்து பிள்ளைமார் சங்கங்கள் மற்றும் வ.ஊ.சி இளைஞர் பேரவையின் சார்பாக திரைப்படம் மாபெரும் வெற்றியடைய வாழ்த்துகிறேன்... திரைப்படத்தை திரையரங்குகளில் காண்போம் நண்பர்களே... குருமா பசங்க செய்து வரும் நாடக காதல் அட்டூழியத்தை கருவருப்போம்...
870	C041669	Tanglish	Offensive	Kunjileh mantrichiudegeh . Ipedi padam thea potu tamil koottam oru koothadiya avirangeh
871	C041671	Tanglish	Offensive	Vetrimaran standard ku illadha madhiri iruku
872	C041679	Tanglish	Offensive	pakka va Rajinified. kola gandula waiting
873	C041681	Tanglish	Offensive	Enada ore night dan pola...... Padam
874	C041687	Roman Telugu	Hate Speech	next generation chaalaa strong gaa prepare chestunnaru
875	C041699	Tanglish	Offensive	Ithukum 52k dislikes....ungaluku yentha maathri padam daa edukanum thotuttalaa iruku daa ungalukku
876	C041702	Roman Telugu	Hate Speech	rajyanganni marustham ante maatram taggedele
877	C041706	Kanglish	Offensive	Kathe heldene nilsbitri
878	C041717	Tanglish	Hate Speech	Ada pavingala all asking Vani , rithika but hero yarum kekala
879	C041732	Roman Telugu	Hate Speech	mea maatalu vinte telisindi meeku commonsense ledani
880	C041735	Roman Telugu	Hate Speech	Ammai Maya la padithy Ela madhyala out aavtham, papam bali aaipoyadu pilla puku gadu
881	C041736	Roman Telugu	Hate Speech	Frank ga cheppalante evari personal life valladi... Meru chesthundi enti mari Peruki pedda news channels... Avasaramayina news vadilesi sodhi news lu cheppatle....Apudu mimmalni alage anali ga Enta sepu cinema valla personals lo, leda social media peru cheppi Netizenlu troll chesthunaru anatam... Controversy lani pani kattukuni crete cheytam...ila sodhi news ee kani paniki vachevi epudyna cheppara ra? Scrap media channels....
882	C041738	Tamil	Offensive	திரௌபதி என்பவள் ஒரு விபச்சாாி என்பது எத்தனை பேருக்கு தொியும் ஆள் ஓழாட்டம் தேவுடியா திரௌபதி
883	C041745	Roman Telugu	Hate Speech	Nice baaga dhimpav Anchor bro.
884	C041746	Tamil	Hate Speech	என்னாமா கூவுறானுங்க டா முடியல டா யப்பா
885	C041753	Tanglish	Offensive	rajini nee gaali raajaali nee gaali oora evvalavu naal aematralaam unnoida komaali rasikan ullavarai .
886	C041754	Roman Telugu	Hate Speech	Vallu andharu godavalu lekunda bagane vuntaru nelanti valle over action cheysthuntaru
887	C041757	Roman Telugu	Hate Speech	Manchu Laxmi lo andam ekada kanipistunde raa babu .dabbu unte stone kuda diamond laga kanipistunde
888	C041763	Roman Telugu	Hate Speech	Pichi lanjodkulak phone vadadam raadu.
889	C041765	Roman Telugu	Hate Speech	Oreymeepartychattaparty .trs
890	C041773	Tamil	Offensive	ரஜினிகு இருக்கின்ற இளம் ரசிகர்கள் கூட சூர்யாவுக்கு இல்லை என்று இருக்கும்போது வேதனையாகத்தான் உள்ளது
891	C041778	Tanglish	Offensive	this looks like old thatha song for thatha thala fans da...hahahahahahahahahahahahaha..
892	C041784	Roman Telugu	Hate Speech	naag ashwin simplicity key oka like kottandi
893	C041786	Telugu	Hate Speech	మీరందరూ Ap ని సంకనాకించారు
894	C041793	Tanglish	Offensive	Siva Anna super put not important
895	C041796	Roman Telugu	Hate Speech	yudi navinnapamu matrame bhavishyatlo biddalu baadhalu padakudadane vuddesamuto naavinnapamutappayite kshaminchamani vinnapam
896	C041802	Tanglish	Offensive	Dislike potavan la ratham kakki savan
897	C041803	Roman Telugu	Hate Speech	naag garu chaitanya shoe beautiful chaalaa bagunnaru maa abhimaana heerolu
898	C041807	Roman Telugu	Hate Speech	aa talli maatallo entha ardhamu vundo anthe aavedana kuudaa vundhi aa kutumbaaniki anthaa manchi jaragaali
899	C041809	Kannada	Offensive	Parthasarathi ನಿನ್ ತುಲ್ಲಗೆ ಕಿಂಗಫಿಶರ್ ಬಿಯರ್ ತುರ್ಕಾ... ನಿನ್ ತುಲ್ಲಿಗೆ ನನ್ ರಾಡ್ ಹಾಕ್ಲಿ ಎಷ್ಟೇ ನಿಂದು ತುಲ್ಲು
900	C041813	Tamil	Hate Speech	இது தான் உண்மையான சமூக படம் உண்மையான காதலை யாரும் எதிற்பதில்லை நாடக கம்பெனி குரூப் சரியான செருபடி
901	C041814	Tanglish	Offensive	0.26 90's la crack jack biscuit vilambaruthula varuvare avara???????
902	C041819	Telugu	Hate Speech	బొంగులే,, గవర్నమెంట్ వెనకాల ఉంటే వంద చెప్పొచ్చు.
903	C041820	Tanglish	Offensive	Gud thaan..but Elam kolapura mathiri iruku..
904	C041823	Kanglish	Offensive	MONSTER_KANNADA nin Amman sule maga me Yello majestic Alli
905	C041824	Kannada	Offensive	ಬೇಡಾ ಈ ಕಚಡ ಶೋ ಗೇ ಬರೋದು ಬೇಡಾ ಸರ್
906	C041826	Kanglish	Offensive	Takathidre kariya thara movie madli
907	C041829	Roman Telugu	Hate Speech	bala yogi yerram nayudu laljan basha mugguru chandrababu tayaaru chesina leaders
908	C041840	Tanglish	Offensive	Yappa yuvanu... Hans Zimmer paavam ya... Thanks to hans Zimmer nu potru... Avaru unga appava vida kovakararu...
909	C041841	Tanglish	Offensive	Dislike pannravan ratham kakkai saavan 🤣
910	C041843	Roman Telugu	Hate Speech	Babu gogineni garu suereb ga Chepparu
911	C041844	Roman Telugu	Hate Speech	adagale conny edainaa ichhe annaiah avta line entamandiki ishtam
912	C041845	Tanglish	Hate Speech	#thalaivarfans put dislike all indha padatha edhirpathen romba aana ipo enna naane serupala adicha maari aachu, yenda unga publicity ku cheap ah behave panreenga... idha tamilrockers la kuda paka maten
913	C041846	Tanglish	Hate Speech	Like comment pirika vandam athu nala illa. Kaithi na like um bigil na comment. Entha mari poduvatha niruthunga.
914	C041847	Roman Telugu	Hate Speech	actor meeda unna gowravam
915	C041848	Tanglish	Offensive	vijai fans ellam mudinja alavukku disslike pottu manasa thethikonga. ha ha ha ha ha ennudaiya aaruthal.
916	C041852	Tamil	Hate Speech	வன்னியன் பறையன ஓதுக்கனா சாதி வெறி பறையன் செக்கிலியரை ஓதுக்கும்போது தெரியாதா ஜாதி வெறி ## குருமா தே.பையா##ப.ரஞ்சித் புண்......
917	C041862	Tanglish	Offensive	Ithukellaam kaaranam antha parani paiyan thaan
918	C041865	Telugu	Hate Speech	ఒకసారి మా తెలంగాణ కి ర బ్రదర్ నీకు అదికూడా దొరకదు ఉన్నది చేసుకొని వేరే జాబ్ కి ట్ర్య్ చెయ్
919	C041866	Tanglish	Offensive	Intha trailer pathapo yarkellam kaththi trailer njyavagathuk vanthidch
920	C041873	Kannada	Offensive	Kumar ನೀನಮ್ಮನ್ ಯಾಕೋ ಗಾಂಡು ತಿಕ್ ಊರಿನ
921	C041878	Roman Telugu	Hate Speech	Bonda Uma oka porambokuvadu
922	C041881	Tanglish	Offensive	Seems a bit like Phantom namma avana adikradhu indha ulagathuku yen avanuke theriya koodadhu
923	C041882	Tamil	Hate Speech	யார ஏமாத்த பாக்குறீங்க இது 96. ரஜினிய பங்கம் பன்னிட்டிங்கடா. Ha ha ha.
924	C041885	Tanglish	Offensive	Enda itha trending la podala, somberi Youtube pasangala
925	C041889	Telugu	Hate Speech	తెలుగు లో ఉన్నా అన్ని వ్లోగ్ ఛానెల్ వాళ్లని ఏసుకున్న NTB ఆన్న కి ధన్యవాదాలు
926	C041905	Telugu	Hate Speech	ఏదో మాటవరుసకి యూనిఫాం తీసేసి రా చూద్దాం..... అని జె సి దివాకర్ రెడ్డి అంటే మాత్రం
927	C041906	Roman Telugu	Hate Speech	trs kadhu brs rey paayi cheyi munugode polls lo
928	C041908	Tanglish	Offensive	Anava kolaia niyam paduthringala???? Cinema layum ippo jathi mayiru nu
929	C041909	Tanglish	Offensive	Nee adi vaanga pora thalapathy sir-um thala sir-um irritating panra maathiri irukku pls request ithu maathiri vendaamea plsssss
930	C041918	Roman Telugu	Hate Speech	deshaanni janabha bhaarinundi rakshinchandi mahaprebhoyidimodigariki saadhyapadutundi
931	C041931	Tanglish	Hate Speech	Mannu ponnu rendum mukyam athula yar kaiya vachalum kaiya vetuvom
932	C041936	Tanglish	Offensive	Nalla vela andha e.v. ramasamy naaya pathhi varala
933	C041940	Tanglish	Offensive	Petta marana mass piano cover. Pudichirudhal like poodunga,Pudikaati dislike poodunga.Yenna neenga keetaalae yennaku poothum
934	C041941	Kanglish	Hate Speech	Rashmika fans ND devarkonda fans urkondirtarea
935	C041944	Roman Telugu	Hate Speech	cheppedi em lekapoyina haha hmm ani anna parledu vaallatho matladali anthe
936	C041957	Tanglish	Offensive	Nadicha pothu Vera Vena. , Arasiyal Vena
937	C041959	Roman Telugu	Hate Speech	haha kaalu challou okaaa akalitho vunaaa leone ice avi jai mega power starzai charanh jai jai charanh
938	C041961	Tanglish	Offensive	Adichi Under wearoda Oda Viturven Maanam Pochuna Thirumba Varathu Pathuko Paaah Ellam Sceneum Apdiyeh Sethukirukan Karthick Suburaj *Get Rajinified*
939	C041962	Tanglish	Offensive	Nadiyoke shakthi illa ivnella hero ankond tirgtira nimge taste illa illandre kannu illa
940	C041964	Tamil	Offensive	அந்த ஒரு சாதி ஆண்கள் மட்டும் என்ன அவ்வளவு அழகனுகளா? திறமைசாலிகளா? பணம் சம்பாதிப்பதையே வாழ்க்கையில் முக்கியம் என்றிருந்துவிட்டு பெண்பிள்ளைகளை ஒழுங்காக வளா்க்காமல், அவள் யாா் பின்னாலோ சென்றால் அதை நாடகக்காதல் என்று தப்பிக்க நினைத்தால்? இதே இந்த நாடக காதல் ஆண்ட சாதிகளுக்குள் இருந்தால் சைலண்டாக கல்யாணம் செய்து வைப்பது, இல்லையெனில் சரி பறவாயில்லை என்று கடந்து செல்வது, ஊருக்கு இளிச்சவாயன் தலித் சிக்கினால் நாடகக்காதல்என்று ஒப்பாரி வைப்பது. போங்கடா உங்க யோக்யதை எல்லேருக்கும் தெரியும்டா!
941	C041971	Roman Telugu	Hate Speech	Vadu baney unnadu nuvvu chusko nedi
942	C041972	Roman Telugu	Hate Speech	noothana samvatsara subhaakaankshalu super event sudheer and rashmi dance super iam wathing sankranti event
943	C041973	Kanglish	Hate Speech	13k dislikes frm jealous bollywood fans
944	C041979	Tanglish	Offensive	2019 Diwali Blackbaster ..... if Any One Agree...? Kick Like Button
945	C041980	Roman Telugu	Hate Speech	Thanks talli... Koncham naalika mandam laaga undhi.
946	C041981	Roman Telugu	Hate Speech	​raani pramaadam raani noo problem next tim bjp kii vote veyandi telamgaana prajalara
947	C041983	Roman Telugu	Hate Speech	Nenu aitey denkapota akkadnunchi
948	C041987	Telugu	Hate Speech	arey tv9 nuv పెట్టిన పోల్ కి ఏమైనా సంబంధం ఉందా రా
949	C041989	Tanglish	Offensive	Santhathi sakula namma thalaivara kalachitingalae daw
950	C041994	Tanglish	Offensive	Mokka ah irukkum nu confirn pannittenga
951	C041998	Roman Telugu	Hate Speech	enduko nuvvante naaku etam annavedam cinema chusinappati nundii decide ayyanu your mai brother
952	C041999	Tanglish	Offensive	Ayyo ayyo ayyo ennada ippadi thalaivara ready pannirukinga
953	C042023	Tanglish	Offensive	Omg 59k dislike for ego wow
954	C042028	Tanglish	Offensive	Aama dhadi valikinu. Lawyer can't speak like this. Mokke. Vijay is vijay
955	C042033	Tamil	Offensive	ரஜினி: நா அரசியலுக்கு வருவது உருதி ஜெயம்ரவி : டேய்யார ஏமாத்ருங்க இது 96 uuu
956	C042038	Tanglish	Offensive	Enada thalaivan VJS oru thadava tha kaatirukinga Avara paaka thanada mukka vaasi per padathuku povo
957	C042041	Telugu	Hate Speech	ఎదో కామెంట్స్ పెట్టొద్దు అన్న ఎదవ ముండ ఇప్పుడెలాగా పోయేటి వాడుతున్నావ్
958	C042044	Roman Telugu	Hate Speech	Mahesh anna… disappointed with this movienext movie hit avvali…
959	C042046	Tanglish	Hate Speech	Ending la super star ah enda kalaichi nga
960	C042048	Kanglish	Hate Speech	boss mania Kaili aagde iro shandru mai paruchkotave nnadak naav tale kedskolalla nndagar na nam karnataka dalle yavangu gottilla inna other state
961	C042049	Kannada	Hate Speech	ಈ ಹಾಡನ್ನು ಪದೇ ಪದೇ ಕೇಳುವವರು ಹಾಗೂ ನೋಡುವವರು ಯಾರಾದರೂ ಇದ್ದೀರಾ....
962	C042050	Roman Telugu	Hate Speech	ee styles and manorisms present andaru vaadutunnaaru mana industry loo
963	C042052	Roman Telugu	Hate Speech	jeevitamlo malli ilanti nirlakshyamgaa undakunda jarigindi vidini chuusi inko 10 mandi maarataaru
964	C042053	Kannada	Hate Speech	ಗುರು ಅವರಿಗೆ ತಾಕತ್ತಿದ್ದರೆ ಯೂಟ್ಯೂಬ್ ಅರಸ್ ಆಗೋಕೆ ಹೇಳು 10 15 20 ಸೆಕೆಂಡ್ ಮಾಡೋ ಟಿಕ್ ಟಾಕ್ ಸಡೆಗಲಿಗೆ ಯೂಟ್ಯೂಬಲ್ಲಿ ಎಂಟು ಹತ್ತು ಇಪ್ಪತ್ತು ನಿಮಿಷ ವಿಡಿಯೋ ಮಾಡೋಕೆ ತಾಕತ್ತಿದೆಯಾ ಕೇಳು nnLove u ರೋಸ್ಟ್ team ಅಂಡ್ ಟ್ರೋಲ್ team
965	C042054	Roman Telugu	Hate Speech	lokesh anna ippudu ismart shankar lae tayaaru ayyadu punch la meeda punch lu
966	C042055	Roman Telugu	Hate Speech	narottam mishra peddha langa ram setu movie ban cheyamantaru deniki movie peru lo ram vundhi ani
967	C042059	Tanglish	Offensive	Yennai arindhal teaser la siva dialogue pesura mathiri irukku
968	C042065	Telugu	Hate Speech	వీడికి ఇంత మంది అవసరమా వోవర్ కూడా
969	C042071	Tanglish	Offensive	Adichi underwear oda odavida porom, naam thamizhar
970	C042074	Telugu	Hate Speech	మా రాష్ట్రానికి మేము అడిగినప్పుడు మీరు వె౦ట వె౦టనే అప్పులు ఇవ్వడం మాత్ర౦ మరచిపోక౦డి
971	C042080	Tanglish	Hate Speech	Lets start, dumilans katharals, yaru mannu da? .
972	C042086	Roman Telugu	Hate Speech	ii movie gurinchi okkadu negative gaa matladina vaadu terrorist ayyi undaali
973	C042090	Tanglish	Offensive	panday payapulla summa suthi..suthi adipan pollaya...........
974	C042091	Tanglish	Hate Speech	Repeat mode thalaivaa vera level variety of looks ozm aug realse mattum venam anjan aug la than release paningaa result
975	C042092	Kanglish	Hate Speech	Tik tok mad suli makkalige chppali ach hodri sulimakkaliga and ladies fast chuthu sulimakkalu
976	C042093	Roman Telugu	Hate Speech	Magadiki aada vesham vesinattundhi Srija. Aa maathranike pelli meedha pelli siggundali.
977	C042096	Tanglish	Hate Speech	inga some ppl ku nala burn aguthu pola...savunga da amaigala
978	C042104	Roman Telugu	Hate Speech	setamma vaakitlo serimalle chettu neenu 9th loo unnappudu vachindi nen 9times chusna adhe they best movie nadi
979	C042107	Telugu	Hate Speech	ఈ ప్రోమో చూసినంత సేపు నా మొహంలో చిరునవ్వు ఆగలేదు
980	C042108	Tanglish	Offensive	DARBAR varum varaikkum PETTA va pathu Veri yaethikuvom
981	C042109	Tanglish	Offensive	Sarkar vanguna teaser like la kal vasikooda varala
982	C042115	Roman Telugu	Hate Speech	anna nuvu cheptuntevoka emotion vastundanna
983	C042121	Roman Telugu	Hate Speech	devuda intha hight undhi ee ratham
984	C042122	Roman Telugu	Hate Speech	Ammayila paruvu theesindhi
985	C042125	Tanglish	Offensive	Enna sir ivlo azhaga vanthinga... Oru dialogue kooda pesama chumma thayya thakkanu sollitu poiteenga
986	C042126	Roman Telugu	Hate Speech	Ma kharma .. rastani palinche mantrulu malla Reddy,gangula,talasani meeku oka dandam ra babu
987	C042128	Tanglish	Offensive	Vada chennai : Sanda seiyanum ENPT: Yerangi adikanum Asuran: Adichu vaanganum
988	C042130	Tanglish	Offensive	Ennappa comedya irukudhu Very funny........
989	C042133	Tanglish	Offensive	nangalum kola kanda la than irukom oda vidroma illayanu parru
990	C042136	Tanglish	Hate Speech	Trailer mayiru madhiri iruku aamai nakkis
991	C042146	Roman Telugu	Hate Speech	mahesh babu nilabadithe chalu memu chusatsam bayya super dialogue
992	C042148	Roman Telugu	Hate Speech	Bjp central lo vachi yemi chesinru chepu
993	C042159	Tamil	Hate Speech	Ohh ellam penda பரம்பரையும் இங்க தான் இருக்கீங்களா
994	C042165	Tamil	Hate Speech	நாம் தமிழர் கட்சி NTK தான் NGK னு செல்வ ராகவன் படம் எடுத்திருக்காரு
995	C042167	Kanglish	Offensive	Lowde song hesru en helu
996	C042171	Tanglish	Offensive	Yogi babu why hair cut entha pundaikagavum hair panatha bro unaku athan alagu
997	C042184	Tamil	Hate Speech	டேய் கருமம் அது என்னடா மேக் அப் அது 🤣🤣🤣, ஜெயலலிதா மாறி பண்ண சொன்னா சும்பி போன சன்னி லியோன் மாறி பண்ணி வெச்சிருக்கீங்களேடா
998	C042185	Roman Telugu	Hate Speech	Veedu bhutulu vedava
999	C042187	Telugu	Hate Speech	అధికారం కోసం తల్లిని చెల్లి ని కూడా వాడుకొని వదిలేసాడు జగ్గన్న ఇంకా మనం ఎంత గొర్రెలం కాదా మనం
1000	C042195	Tanglish	Offensive	Suriya Anna fans lam ennathanda pantringa
1001	C042196	Kanglish	Hate Speech	Dis like madirorige shradaanjali
1002	C042198	Tanglish	Offensive	Naraya Peru vivegam trailer dislike pannanumne pakkaranka oru nimisham dislike kavida likes athikam so
1003	C042202	Telugu	Hate Speech	వీడీ పేరు రాంగోపాల్ వర్మ! వీడి చేతిలో పడ్డ అమ్మాయిలు అవుతారు ఆలు కుర్మా
1004	C042204	Kanglish	Hate Speech	obba batta na gi. e rethi bare you du sare alla. namma darmmake.nave.......
1005	C042207	Tanglish	Offensive	Namma super star politicsla DMK-vukku ethira varuvarnu partha ippo DMK-vin SUN Picturesla nadikkirarru Avarakku Cinemathan ulagam Last varai ivar actorthan
1006	C042209	Roman Telugu	Hate Speech	Craze aa nijaythi undi anna adi telusukuni matladu anna
1007	C042213	Roman Telugu	Hate Speech	anthaa mea kashtarjitam annameeru eppudu santoshamgaa undaalani korukuntu itlu mea abhimani
1008	C042216	Kanglish	Offensive	Bavaraj Marihal iu777779088i9omplikenUu7 n 7thui9
1009	C042218	Tanglish	Offensive	dislike Potta Neenga Ellarum padam paaka thaguthi illadhavanga
1010	C042227	Tanglish	Offensive	what the fk gng on here !!! video got 15k dislikes and 128k likes but views only 24k...!!? r u kidding me..?????
1011	C042228	Kanglish	Hate Speech	Looo bolee makla tiktokersnSule Galla India du economy jasthe madeee adree nkn china du madtheraaa nBole makla Nim na hang madbeku n Tiktokers nChina du spoons ninunBole maklla Sule mundee galan
1012	C042231	Roman Telugu	Hate Speech	Pakka salaar release 28 sep key prashant neel ss Rajamouli RRR key bayapadaley viniki bayapadutada na lowda
1013	C042232	Tanglish	Offensive	Great Insult To Madam Jayalalitha...
1014	C042234	Tamil	Offensive	என்னடா மேக்கப் மேன் சிங்கத்துக்கு மேக்கப் போட சொன்னா முயல் குட்டிக்கு போட்டு வச்சு இருக்க!!!!!!!
1015	C042243	Tanglish	Hate Speech	Intha kramathula yaaru varanum,yaru kaalvaikkanumngratha naangathaanda mudivu pannanum
1016	C042250	Kanglish	Hate Speech	Diya thumba chennagide ondu olle prayathna movie kone vargu sinimada ondu bhagavagi ondu olle feeling nalli movie na nodthidde but kone seen nijakku ishata aglilla tragidi ishtondu bekitta ellara manisige ishta ada adi na sayisbekitta so last seen nodida thakshna alliyavaregu idda feel pat antha Maya agi edenu heeg madudru ansuthe
1017	C042252	Roman Telugu	Hate Speech	major minor ani alochinchi crime chesara every crime must be punished minor musugulo mla kodkuni tapinchela unaru A6 ichi
1018	C042254	Roman Telugu	Hate Speech	Hindi vallatho sanka nakipothav
1019	C042255	Tamil	Hate Speech	மண்ணு, பொண்ணு ரெண்டுமே ஒன்னு அதுல எவன் கைய வச்சாலும் வெட்டுவோம் #திரெளபதி
1020	C042258	Tanglish	Offensive	Dai manasaatchi illama dislike pandringale da.....Proud Tamil movie da vennaigala
1021	C042263	Tanglish	Offensive	Yen Anne yen ipdi pannitiye release panradhu konjam kuda solllame che
1022	C042265	Tanglish	Offensive	Last linea... Keattavathu thirunthungada rendu fansum {vj v/s thala}
1023	C042266	Tamil	Hate Speech	இனிமேல் இருக்குடா உங்களுக்கு. ஓத்தா உங்களுக்கு எங்க வீட்டு பொண்ணு கேகுதா வெட்டி போற்றுவும்
1024	C042274	Roman Telugu	Hate Speech	Adhi ni chellini pakkana pettukoni chusthavara e show family show ga chillra lanjodkalara
1025	C042278	Tanglish	Offensive	Kathi BGM ah slow va pota maadri feel aagudhu
1026	C042284	Roman Telugu	Hate Speech	chaalaa eejeega matladatam baagundi hear excellency governor madam
1027	C042287	Kanglish	Offensive	Bro nan phone thagandaginda nu aa galeej app install madilla.adre adu yavdo ragitu goditu antharalla (share it ) na delete mad de
1028	C042288	Telugu	Hate Speech	BGM కొట్టిన వాడు చూస్తే ఏడుస్తాడు చూడలేక,
1029	C042296	Tanglish	Offensive	Agith la oru aalu punda avanuku poi vevekam nu oru pada punda Adhuku oru teaser punda Vera venuma
1030	C042297	Tanglish	Hate Speech	Indha movie ka ka po short flim la irrundhu full kadhaya suttu teenga
1031	C042309	Roman Telugu	Hate Speech	indian michael jackson prabhudeva garu
1032	C042319	Tanglish	Offensive	Makkale enga channel ah Konjam Subscribe Pannunga plzz friends (Aai Pasanga)
1033	C042322	Tanglish	Hate Speech	Bhairava teaser 6 months - 273k likes Vivegam teaser day 1 - 295k likes
1034	C042324	Tanglish	Offensive	Rekka part 2 .. Vjs mass la set aavala .. Soothu kavum mathiri movie pannunga
1035	C042327	Tamil	Hate Speech	அணைத்து சாதியினரும் (வடநாட்டவர் சாதி சங்கங்கள் கூட) கமெண்டில் ஆதரவு தெரிவிப்பதை பார்த்தவுடன் இந்த நாடக காதல் பொம்பள பொருக்கி குருமா ப்ளூ பாய்ஸக்கு அடி வயிறு கலக்கிக்கிட்டு இருக்கும்...
1036	C042328	Telugu	Hate Speech	సిగ్గు లేకుండా పోయింది రా
1037	C042330	Tamil	Offensive	வசூல் மன்னன் இல்லைங்க !!! தடவல் மன்னன்
1038	C042332	Tanglish	Offensive	Prabash kidha kuda nerunga mudila
1039	C042345	Roman Telugu	Hate Speech	gaad bless your relation madam jai sudheer anna
1040	C042349	Kanglish	Offensive	🤔🤔🤔 hello thamma navu unity maintain madthivi aithu thorskolo avyashyakathe namgila nin CMT nodid kudle yavan avr fanism bidkodala 🤣🤣 nin kano doddu sede nan maga
1041	C042352	Tanglish	Offensive	Unmaya sollanumna viswasam movie ya Vida bettera irukkum
1042	C042353	Tanglish	Offensive	Tamilan Super Hero thaan adunala thaan Indialaye thamarai valarama parthukittoem.
1043	C042359	Roman Telugu	Hate Speech	first koja johar ni india nunchi tarmidengithe sangam pedha pothadhi
1044	C042362	Tanglish	Hate Speech	Aam pengaluku ethiraka nadakum anaithu kutragalukum sc jadhi ta karanam.. Police kar rape pana list la edunga.. Ella vanniya nadar thevar... uthama payaluga en jadhi karanuga enta thappu um pana la nu Peruma pethi tu irukanuga.. Ponga da sunnigala🤣
1045	C042363	Roman Telugu	Hate Speech	parsantaraparsantatondara endukannanidaanamgaadukuta
1046	C042366	Tanglish	Offensive	Enna bha trailer starting la Marvel lam varuthu
1047	C042374	Tamil	Hate Speech	அவ்வளவு அதப்பு இருந்தா?????? சாதி பெயரை சொல்லி கிடைக்கும் எந்த சலுகையும் வேண்டாம்னு சொல்லுங்கடா பாப்போம்!!
1048	C042381	Tanglish	Offensive	gommala makku kuuthi 1996 la enga da puthiya thalaimurai irunthuchu lusu kuthigala ithukku support vera
1049	C042382	Tamil	Offensive	தம்பி சூர்யா...! ரொம்ப சிறுபிள்ளைத்தனமாக கோபாவேசமா எமோஷனலா அரசியல் பேசி நடிக்கிறது எப்பவும் வேஸ்ட் கண்ணா...! இந்த உலகம் ரொம்ப பெரிது! இதோட பாலிடிக்ஸ் புரியிறது ரொம்பவும் கஷ்டம்! ஏன்னா அதோட டைமன்ஷன் அப்படி! லேசுல அதோட வாலை பிடிக்க முடியாது! அது அனானிமஸ்! யாராலனு தெரியாது! எதுக்காகன்னும் புரியாது! போய்க்கிட்டே இருக்கும்....! இன்ஃபினிடி மாதிரி! நாம பார்க்கிறது எல்லாமே இல்லுஷன்தான்! ஹா..ஹா..ஹா...! இதுல எமோஷனல் காமிக்ஸ் எதுக்கு? எனிவே, ஓகே! குட்!
1050	C042383	Tanglish	Offensive	Kola gandula Iruka mavane kollama Vida Mata ..... Masssss thalaivaaaaa........
1051	C042386	Roman Telugu	Hate Speech	neeti nijayiti gaa unna vaallu kuu daivabalam 100 untundi
1052	C042388	Tamil	Offensive	அட அரைவேக்காட்டு பயலே :-D :-D
1053	C042390	Roman Telugu	Hate Speech	poori sir may flop movies kuudaa vaerae directors these hit movies kante manchi philosophical gaa entertaining gaa untaayi meetho baagu paddollu mimmalni marchipoyi undichu sir butt memu kaadu love you sir ii movie tho vijay manchi super avvalani korukuntunna
1054	C042400	Roman Telugu	Hate Speech	sakshi eppudu correct rasindi adhi eppudu tappe raastundi
1055	C042404	Roman Telugu	Hate Speech	telamgaana udyama geetaala nundi maas geetaala meediki root maarchina mangli
1056	C042406	Telugu	Hate Speech	తనకు వర్తించే మాటలన్నీ తన నోటిద్వారానే పలికిన గొప్ప వ్యక్తి
1057	C042407	Roman Telugu	Hate Speech	ninnu evaranna aapedi ninnu aape magaadu puttaledu inca meeru oodinaa gelichinaa naa ootu meeke jai janasena
1058	C042408	Tanglish	Hate Speech	Sillaraigalin sound athigama dan irukkum...
1059	C042410	Tanglish	Offensive	1:37 ommala that bgm.. Yuvan Thala Ku nu vantha matum epudiyo verithanama bgm poturaru
1060	C042416	Tanglish	Offensive	enna kanravudaaa ithu sotta manda dala
1061	C042421	Tanglish	Offensive	Yoov ennaya dhanusu bayama irukuya unna paatha...Enna nadippuda eppaaaaa...sillukkuthuya...
1062	C042424	Roman Telugu	Hate Speech	johnny boy bollywood kii mana telugodi power chuupinchaavu
1063	C042433	Tamil	Hate Speech	படம் எல்லா நல்லாதான் எடுகிறீங்க ஆன ஆட்சியாளர்கள் பிரச்சனை பன்ன போய் கால்ல விழுதுரிங்க.....
1064	C042437	Tamil	Offensive	மணிரத்னம் - செக்கச்சிவந்த வானம் அட்லி - செக்கச்சிவந்த மேகம் (புரிஞ்சவன் பிஸ்தா)
1065	C042445	Roman Telugu	Hate Speech	Hero lu remuneration taggisthe dil raju rates penchi collections motham mingesthadanta….funny fellow
1066	C042447	Roman Telugu	Hate Speech	venkie mama fance jai venkie mama
1067	C042450	Tanglish	Hate Speech	Trailer pkave bore adikuthu ethla pdm epdi pkaporano
1068	C042457	Roman Telugu	Hate Speech	rohit king king rohit super hit ippudu india kii king rohit
1069	C042459	Tanglish	Offensive	Trailer Andha alavukkku onnum nalla illa, padam papom naanum thala rasigan dhaan.
1070	C042463	Tanglish	Hate Speech	Simple ah sollanumna, marriage chinna visayam kedaiyaathu so marriage panra munnuku ayiram vaathi illa latcham vaathi yosinga. Unge valkaiyode serthu innoruthar valkaiyaiyum naasam panaatinge.
1071	C042465	Roman Telugu	Hate Speech	ee principle nee studies loo use chesthe upsc clear cheyagalam
1072	C042468	Tanglish	Hate Speech	Oru SC Ponnu illa Paiyan o Vera caste la irukka ponnaiyo illa paiyanaiyo unmaiyaa love pannaa kooda idhu pola padam andha kadhal ah azhikka vaaippu irukku.. Indha Padam Ulaguthukkaey kedu ketta visham...
1073	C042479	Roman Telugu	Hate Speech	Fans ki rowdies anna tagline pettinodu prematho arey anadam tho thappu ledu
1074	C042484	Telugu	Hate Speech	2024 లో జగన్ జైలుకు పోవడం ఖాయం
1075	C042493	Roman Telugu	Hate Speech	Vadu vani over action rod la undi movie the great Tyson garini joker ni chesesaru..
1076	C042497	Tanglish	Hate Speech	Yara ooom******ah velunachiyar pera soldringada....mayurukkar pera sollityu aprama velunachiyar pera soldringa.....gommala
1077	C042506	Roman Telugu	Hate Speech	edukondalawada venkataramana govinda govinda
1078	C042508	Tanglish	Offensive	Diwali race winner..... Oppent aale illa sollo aahiten.......
1079	C042509	Tanglish	Offensive	Sankar ... Sankar ... Than ... Evanum adichukka mudiyathu
1080	C042512	Tanglish	Offensive	Trailer semma and padam Vera level la irukum Jm Ravi ;chinna vayasula velaiyadara kolathuku polam da Yogi babu: adhu Mela than da nadanthu porom 🤣🤣🤣
1081	C042521	Tamil	Hate Speech	நான் தல ரசிகர் அதனால விஜய் சார் வீடியோவ டிஸ் லைக் பன்ற யாரும் உண்மையான தல ரசிகரா இருக்க முடியாது பிடிக்காட்டி ஒதுங்கிகங்க வெருப்ப உமிழாதீங்க
1082	C042522	Tanglish	Offensive	Bro enna view apdiye irukku hang ahiducha
1083	C042529	Tanglish	Offensive	Real competition Kaithi and sanga tamilan Nega rendu perum orama poi vilaiyaduga -Bigil
1084	C042531	Roman Telugu	Hate Speech	neenu vunnaanunenu vinnanunenu chusanu all aar eligible fore they ascar level performance
1085	C042532	Roman Telugu	Hate Speech	enni saarlu chusina malli malli chudalanipinche sang suupa
1086	C042537	Roman Telugu	Hate Speech	soane of india ticket booking records nee baddalu kottaalani aasistunnaanu
1087	C042540	Roman Telugu	Hate Speech	gangam style moddalo paata naku mic mokam dengali anipistahdi
1088	C042546	Tanglish	Offensive	Viswasam likes beat petta trailer likes.
1089	C042555	Kannada	Offensive	Parthasarathi ನಂದಿನಿ ನಂದಿನಿ ನಿನ್ ಹಾಲು... ಸ್ಮೆಲ್ ಬರ್ತಾ ಇದೇ
1090	C042558	Roman Telugu	Hate Speech	hope yashoda will bay aaa very good comeback fore samanta garu too they mainstream
1091	C042561	Tanglish	Offensive	Next vijay movie...logesh kanagaraj kooda dhan da..... Apo yar gethu..... Nu yosi.....
1092	C042566	Roman Telugu	Hate Speech	baireddy siddarthareddy anna hero
1093	C042570	Roman Telugu	Hate Speech	Over action Varsha camera visual kosam
1094	C042571	Tamil	Hate Speech	🤣🤣தலைவி dance super ப🤣🤣🤣 என்னாடா டிரஸ் அது🤪🤪🦸🦸
1095	C042579	Tamil	Offensive	ஒருவர் செய்த தவறுக்காக எல்லாரையும் பழி போடுவது தவறு நண்பா. ஆட்சி & பணம் சம்பாதிக்க சாதி மத சாயம் பூசி நம பிரிச்சிடுரங்க நண்பா . வேணாம் நண்பா .
1096	C042586	Tanglish	Offensive	Padam fulla night la eduthurkanga....🤔🤔🤔 oru vela night movie ya
1097	C042595	Tanglish	Offensive	simbu vechi trailer release pannathey periya vishayam thaan... cooling glass scenes ellam dupe nu ninaikiren... nammaalu avlo ellam shooting ku varamaataru...
1098	C042598	Tanglish	Offensive	U1 bgm Hero trailer-Comment Ar Rahman bgm bigil-Like COUNTDOWN STARTS NOW#
1099	C042600	Tanglish	Hate Speech	oruthar mela neenga viswaasam kaatrathukaaga innoruthara aen asinga paduthuringa? vj fans? Ajith Fans?
1100	C042604	Tanglish	Offensive	Dai ethu earakana vee short film ma vanthudichi da
1101	C042606	Tamil	Hate Speech	மிஷ்கின் + இளையராஜா = நிசப்த பூகம்பம்.
1102	C042609	Kanglish	Offensive	Stupid Fans hudgiru comment madodunne nodok bartiya bevarsi madak kyaame ilvenoo lofer
1103	C042612	Roman Telugu	Hate Speech	vammo super chitty talli action kay pranam posela annav raa mummy
1104	C042613	Tanglish	Offensive	Ellam ok last ya yen kaththi theme music pottanganu terila
1105	C042614	Tanglish	Offensive	1000 varusham aanalum bat parody tha panna mudiyum copy paste Panama.. suyama yosinga dir...tat too with sk..#shi*
1106	C042615	Tamil	Hate Speech	எந்த ஒரு தப்பும் பண்ணாம அந்த ஜாதில பிறந்த ஒரே காரணத்துக்காக அவங்கள ஒதுக்கி வைகாம இருந்தா...இந்த பிரச்சனையே இல்ல.... தப்பு பணாலே பணம் குடுத்து ஜாமின் வாங்கிர இந்த காலத்துல தப்பே பணாம ஒருத்தன கேவலமா பாத்த...அவங்க வழி இல்லாம குறுக்கு வழி ல மேல வர தா பாப்பாங்க... வோட்டுகாக ஒருத்தன் நம்மள பேச வைக்ரான்...நாம பேஸ்ரோம்...ஆனா பல கொடி லஞ்சம் அவங்க வீட்டுக்கு தா போகுது...நாம கஷ்டபட்டு தான் சாப்ட வேண்டி இருக்கு...
1107	C042616	Telugu	Hate Speech	నితిన్ కృష్ణ స్టెప్పులు వేస్తున్నాడు కదా
1108	C042618	Tanglish	Offensive	apadi ella sola kudadu... brother ....
1109	C042621	Roman Telugu	Hate Speech	Ttr dongal trs pata leaders
1110	C042622	Tanglish	Hate Speech	Thalapathy padathuku sirukumpothu kovam vanthuchu ana end cardla viswasam potinga paru anga nikuringa
1111	C042624	Tanglish	Offensive	ena da..teaser start panrathukula end aagiruchu..hari..irunthalum ivalavu fast aagathu pa
1112	C042625	Kanglish	Offensive	Nivu deshada Ella moole moole bidade suttidira. Avaru hagella sikka sikka varigella kanisikolluvudilla
1113	C042627	Tanglish	Offensive	Starting vara music ennathu? Piano tiles la vara maari iruku
1114	C042628	Tamil	Hate Speech	என்னதான் இருந்தாலும் எங்க அசுரன் போல எந்த மூவியும் வர முடியாது
1115	C042632	Telugu	Hate Speech	తెల్ల తోలు వెదవలు భారతీయ సంతతికి అవకాశం ఇస్తారా?
1116	C042633	Tanglish	Hate Speech	Yennada oru pakkam perusa eruku ,,inooru pakkam sirusa eruku,,,,namithava potrukalam da
1117	C042634	Tanglish	Hate Speech	Ethu trailer ah ila serial ah
1118	C042635	Kanglish	Offensive	Hahahaha LoL nIdiot beggar get lost.
1119	C042638	Kannada	Offensive	nayak ನಿನ್ ತುಲ್ಲುಗೆ ಗಲೀಜ್
1120	C042641	Tanglish	Offensive	Thalaiva semma thalaiva apa thalapathy 64 kandippa mass thaaan
1121	C042642	Kanglish	Offensive	lo kaidhi
1122	C042643	Tanglish	Hate Speech	Dhanush fans 3K dislikes dei idhu ellam oru polapa vadachennai trailer varatum iruku katcheri
1123	C042649	Tanglish	Offensive	Otha vaaya odachiruven thalapathiya pathu sirichirukka
1124	C042650	Roman Telugu	Hate Speech	Keka pettinchi denginav
1125	C042653	Telugu	Hate Speech	జాతి రత్నాలు మూవీ చూసి ఎంత నవ్వుకున్నానో ఈ cash program చూసి అంతకంటే ఎక్కువ నవ్వుకున్నాను
1126	C042654	Tanglish	Hate Speech	Hospettel nusre nenachchaa...un jathi madham..enam yellam ore secondlaaa..maththiduvangaaa...ungala mari jathi veri pudcha aluhalukku ..perasavam pakkampothu apdithanda pannaumm...appothanda seripatu varuvingaaa
1127	C042655	Kannada	Offensive	ಬಡ್ಡಿ ಮಗಂದು ಯಾವತ್ ಬಾರುತೋ 27ನೇ ತಾರೀಖು
1128	C042663	Tanglish	Offensive	lips tick konjam adhigamaa irukku
1129	C042670	Kanglish	Offensive	Parthasarathi hogo ninna akkna tullu ninna tara kelsa ilva nange yenu yavglu comments madkondu tika muchkondu sidege hogo
1130	C042674	Roman Telugu	Hate Speech	Blockbuster song ni entha direct ga copy kotteaav ga thaman ga
1131	C042677	Kanglish	Offensive	Rao bari inta comments maadkond koothkoli....thuu inta cinema na kannadadalli prothsaha maadilla anta naachike aagbeku
1132	C042679	Roman Telugu	Hate Speech	super duper hit movie thanks jeevita gaaruu
1133	C042680	Telugu	Hate Speech	అందరూ కష్టపడతారు.. వాళ్లు తినడానికి ఉండడానికి సరిపోతుంది.. కష్టం పేరు చెప్పు నీలాగా దుర్మార్గాలు చేసే వాళ్లే పైకి వస్తారు
1134	C042682	Kanglish	Hate Speech	Dboss fans erbeku
1135	C042687	Tanglish	Offensive	As a thalapathy fana solran. Trailer nalla irukku, en îvlavu dislikes? Whyyyyyyyyyyyyyyyy?
1136	C042691	Kanglish	Hate Speech	Dislike madid gandu inondsala keli
1137	C042693	Tanglish	Offensive	Semma.. Kozhantha moonji character lllena.. innum mass ahh erunthurukum..
1138	C042698	Roman Telugu	Hate Speech	avineeti inca double avutundi
1139	C042699	Tanglish	Offensive	Ennada ethu padatha already yangayo patha mathiri eruku
1140	C042703	Roman Telugu	Hate Speech	all they best anna aani hard work apudu kii vaste kaadu sir jai janasena
1141	C042711	Roman Telugu	Hate Speech	Maa jaganu attu kudda pikalarru miru motamu kalise vachinnaaalion is jaganuPiges grop is babu pawanu lokesh
1142	C042714	Tanglish	Hate Speech	Dai innum indha mathri padam pandringala !!
1143	C042717	Tamil	Hate Speech	இப்பவும் நம்ம வாழ்க்கை இப்படித்தான் போகுது....( அப்ப நாங்க கோமாவிலதான் இருக்கமா???)
1144	C042719	Tanglish	Offensive	Enaku ennamo dhool padam pola iruku....
1145	C042720	Kanglish	Hate Speech	Disliked people's listn1)rashmikan2)rashmika's mothern3)rashmika's fathern4)rashmika's relativesn5)& rashmika's fans.
1146	C042722	Kanglish	Offensive	MONSTER_KANNADA nim ammange nan hakde tunne nathangi siktale avl na vrdashramkke serstini yakandre ninge nodkollake yogyate illa adukkehogo jumper( chupper)
1147	C042725	Tanglish	Offensive	Mannum ponnum onnunanunga, adhan ponna vachu soodhaditen- darmar....
1148	C042729	Roman Telugu	Hate Speech	Ma city lo every 1 km lopala 3 wines vnayi last 2 years nundi... licences Ela padithe alaa evhesaru...Iast elections lo TDP ki vote vesinanduku nenu chala badhapadatananu
1149	C042733	Tamil	Hate Speech	என்னடா பண்ணி வச்சிருகிக என் தலைவியை.... face பார்த்தால் நக்மா மாதிரி இருக்கு.....
1150	C042740	Roman Telugu	Hate Speech	marry atluntadi kruthi brm thoni andam ante minimum atta
1151	C042746	Tanglish	Offensive	Dai kadaseela indha alaiyum massu engra perula kaaa koo aakiteengala
1152	C042750	Tanglish	Hate Speech	Yenna da jayamravi mathiri varuvanu paaartha.. Nizhalgalravi mathiri vanthurukka
1153	C042757	Telugu	Hate Speech	ప్రవీణ్ కుమార్ సర్ garu నిజంగా dynamic police officer
1154	C042759	Telugu	Hate Speech	ఈయన సోది లేకుండా సినిమా హీట్టో చెప్పేసాడు భయ్యా ఇలానే ఇంకా మంచి రివ్వూ చెప్పాలని మనసు పూర్తిగా కోరుకుంటున్న
1155	C042763	Tanglish	Offensive	Paaka dhana porom indha kaaliyoda aatatha
1156	C042766	Roman Telugu	Hate Speech	movie mamuluga teeyaledu
1157	C042768	Tanglish	Hate Speech	Dei ungala thiruthava mudiyathuda poooo badungala akini puthalvan siripu varuthuda
1158	C042774	Kannada	Offensive	BOX crct bro ಪೈಲ್ಸ್ ಮ್ಯಾನ್ ರನ್ನಿಂಗ್ ಸಕ್ಸಸ್ಫುಲ್ಲಿ ಇನ್ ಅನಸ್ (ಮುಕುಳಿ )
1159	C042775	Telugu	Hate Speech	అన్ని తెలుగు ప్రాంతాల నాయకులు ఇలానే వున్నారు... లోఫర్స్.... తప్పు మనది... మనకు సిగ్గుండాలి ఇలాంటి నాయకులను ఎన్నుకున్నందుకు...తు…
1160	C042779	Roman Telugu	Hate Speech	Kulam gurinchi matladakunda eeyana meeting complete avvadu
1161	C042781	Roman Telugu	Hate Speech	anna creativity kii super anna ekadavo vetiki marry pettavu nuvu thopu
1162	C042782	Kanglish	Hate Speech	Vivek G side ge hogro nim
1163	C042784	Kanglish	Offensive	Houdu ashvatama 5000 varsha dinda idre Krista Shaka 2000 Anta yak aktaidare Hindu galu munche inda idane navu idannu pratipadisabeku I
1164	C042792	Tanglish	Offensive	Karthi Anna fans kill like button 🤟
1165	C042798	Telugu	Hate Speech	మంచు కుటుంబం తెలుగు ప్రజకి దేవుడు ఇచ్చిన గొప్ప వరం
1166	C042808	Telugu	Hate Speech	రోజా గారికి దూల తీరింది
1167	C042813	Tamil	Hate Speech	Director தா லூசு பயனு பாத்தா... Hero வும் கோமாளி பயனா இருக்கான்.... 96 ல இருந்து தலைவர் மூலமா தமிழ்நாட்டுக்கு நிறையா அரசியல் நிகழ்வு நடந்துருக்கு,நடத்திருக்காரு....ஆனா வெளிப்படையா அரசியலுக்கு வரல... 2017 டிசம்பர்31 லதா அதிகாரபூர்வமா அறிவிச்சார்... ஆனா ஒன்னு #கர்மா is a Boomerang
1168	C042814	Tanglish	Offensive	Marana mass song expect panni disappointed aanavanka like pannunka ..
1169	C042819	Roman Telugu	Hate Speech	Ending naku tears vachai bro Harsh sai real hero God bless u brother
1170	C042820	Roman Telugu	Hate Speech	monnamadhya oka gamyam ninna oka malli malli idhi raniroju nedu ee seetaramam nijamgaa hrudyamaina sinimaalu ilanti samskaaravantamaina sinimaalu kuudaa appudappuduu ravali janaalu baagaa aadarinchaali
1171	C042822	Tanglish	Offensive	Kadesila rajini yaa comali aakitigale paaa..
1172	C042823	Kannada	Offensive	ನಿನ್ ತುಣ್ಣಿ ಹತ್ರಾ ಶಾಟ ಉದ್ದ ಆಗಿದಾವೆ ಅನ್ಸುತ್ತೆ ಹೋಗಿ ಬೊಳುಸು.... ನಿಮ್ಮ ಅಮ್ಮನ್ d boss ವಿಶ್ಯ ಕ್ಕೇ ಬಂದ್ರೆ ತುಲ್ಲರೆ ಕೊಡ್ತೀನಿ ಮಾತ್ರ... ಹುಶಾರ್.. ಬಾರೋ.. dum ಇದ್ರೆ ಮೆಜೆಸ್ಟಿಕ್.... ಹತ್ರಾ ತುಲ್ಲರೆ ದೆಂಗ್ತಿನಿ ಅಷ್ಟೇ ಮಗನೇ ನಿಮ್ಮ ಅವ್ವ ಹಾದರಗಿತ್ತಿ
1173	C042825	Tanglish	Offensive	Makkal : Rajini padam nadikiradha niruthu, illaina un dowser'a kilichi ammanama vitruvom, Maanam pona Arasiyal side'aey vara mudiyaadhu paathuko
1174	C042826	Telugu	Hate Speech	ఇది frankness నీ బొంద.... అనాగరికం.... సభ్యత సంస్కారం లేని ఒక సైకో వీడు.... గుహల్లో జీవించాల్సిన వాడు.
1175	C042829	Roman Telugu	Hate Speech	Antha fake ey solu galu baga ekuva ayaru
1176	C042837	Tanglish	Hate Speech	Adei clap adichu start pandrathea balumahendra thanda kondu vanthathu tamil cinemaku
1177	C042838	Kanglish	Offensive	Views tumba kadime ide.
1178	C042841	Tanglish	Offensive	Bigil la Vida kaithi trailer maranam
1179	C042847	Tanglish	Offensive	Kola gaandula iruken, Mavane kollama vidamaten antha 39K dislike panninavangala.
1180	C042852	Tanglish	Offensive	Trailer ye nalla iruku..Waiting ...Sankar sir romba kasta paturukaru...Ithalaiyum vanthu en story solli manna alli podrathinga da..
1181	C042857	Roman Telugu	Hate Speech	komatreddy garu telamgaana kosam padavini rajinama chesi nirahara diksha chesina leaders loo okkaruevarii one respects himm
1182	C042860	Kanglish	Offensive	Hands up haters
1183	C042861	Tanglish	Offensive	Vijay fans manasatachi illaima dislike panatinga
1184	C042862	Roman Telugu	Hate Speech	iddaroo chaalaa bagunnaru sooooo cute
1185	C042863	Tanglish	Offensive	Ethana naal thaan naangalum Hollywood super hero va paakuradu Namma oourlaum irrukaannga Paapoom... By a3
1186	C042876	Tanglish	Offensive	Guys Dailyu Atleast 10 times aavathu paarunga please views romba kamiyya irukku
1187	C042881	Telugu	Hate Speech	మీ ఇద్దరికి దేవుడు సంస్కారం ఇచ్చిన ఉపయోగించడము లేదు ఏమైంది మీకు, అలాగే జర్నలిజం తో పాటు అబద్దాలు చెప్పడము కూడా బాగా నెర్చారు. అన్ని దగ్గరుండి విన్నట్లు చెపుతున్నారు. చీ చీ చీ
1188	C042884	Telugu	Hate Speech	పని తక్కువ బిల్డప్ ఎక్కువ
1189	C042888	Tanglish	Offensive	Enada gap la thalaivar ah assault ah kalaaichu vitutu poiteenga
1190	C042896	Tanglish	Offensive	Oruthr mela viswasam katrathukaga inoruthara en asinga paduthuringa (dislikes)
1191	C042915	Roman Telugu	Hate Speech	sarigga chudandi akkada vigguraju unnaadu abba…
1192	C042917	Roman Telugu	Hate Speech	adige dhammu manà jail reddy ki ledu
1193	C042918	Roman Telugu	Hate Speech	yashoda movie chaalaa baagaa undhi
1194	C042919	Tanglish	Hate Speech	Ennada puratchi thalaiviya kaaata sonna Deepa babyma va kaatringa
1195	C042920	Roman Telugu	Hate Speech	raanaa blood loo vundhi actiong
1196	C042929	Roman Telugu	Hate Speech	Neeku KCR and KTR gaadu bichamesthundara
1197	C042930	Tanglish	Offensive	Dai intha padatha eppada release pannuvangada
1198	C042931	Roman Telugu	Hate Speech	Seggu leni modi and department
1199	C042932	Tanglish	Offensive	Harrish Jayaraj nu oru super music director irundharu.. Ippa avaruku paithiyam pudichirichi pola.. Mudiyala..
1200	C042933	Roman Telugu	Hate Speech	mouli anna content vaerae level
1201	C042934	Roman Telugu	Hate Speech	Afterall Comedy Kosam Valla Nanna Nee Kuda Vadalatles
1202	C042937	Tanglish	Offensive	Danush item boy movie laaam pakkurathu ella
1203	C042946	Tanglish	Offensive	Yen da.. short film ah Padam edukurathuku ivlo buildup..!!
1204	C042956	Tamil	Offensive	என் குடும்பத்துடன் சென்று இந்த படத்தை பார்ப்பேன் .... திருமா நாய்க்கு ஆப்பு வைத்த எண்கள் குலா தெய்வத்திற்கு நன்றி
1205	C042957	Tanglish	Offensive	I'm Chitti Reloaded version 2.0
1206	C042973	Tanglish	Offensive	ivanuku yengeyo macham irukuthu. Veedu Po po, kaadu va va koopitaalum ivar pogamateangararu. Wicked vachi thannai youth ninaikiraro 🤔
1207	C042978	Tanglish	Offensive	trailer nalla thana iruke.......yevanda dislike pandrethe??.......pannadaingala.
1208	C042982	Roman Telugu	Hate Speech	kottinchukunte tappa oorukune lae leve
1209	C042983	Roman Telugu	Hate Speech	ondarga sachipora taagubothu KCR Talangana ki pattina daridram potadi
1210	C042987	Roman Telugu	Hate Speech	paapam bhaiyya bobby kii potta abbam gaa vundhi
1211	C042994	Roman Telugu	Hate Speech	entha thokkithe anta lestaadu maa anna
1212	C042999	Tanglish	Offensive	Kaththi song orma vanna arelum indo last song bgm kettit 🤔
1213	C043001	Tamil	Hate Speech	இப்போ பாருங்களேன் அசுரன், பரியேறும் பெருமாள் படத்தை வச்சு Compare பண்ணி பேச நாலு டோழர் குரூப்ஸ் வரும்.. ங்கொம்மால வயிரு எரிஞ்சு சாவுங்கடா..
1214	C043005	Kanglish	Offensive	Illi neevu aa hesaranna heLohagoo ilvalla.48 beka bitti thinno baayiglu ottigr barathve.modalu lancha hogbeku
1215	C043008	Tanglish	Offensive	Po da puntai kalai ethu oru patama sunni
1216	C043009	Roman Telugu	Hate Speech	harsha inner felling madhya loo veedu arustunaadu
1217	C043010	Tanglish	Offensive	Dai ena da akashya voice epdi iruku
1218	C043013	Roman Telugu	Hate Speech	kruthi garu meeru naa favourite heroine
1219	C043014	Tanglish	Offensive	teaserill ealla colourmm undallo hehe
1220	C043016	Roman Telugu	Hate Speech	nter garu meeru chaalaa pedda artiste matldalisochinappudu matladandi adigunapudu odiguntame manchidi
1221	C043022	Kannada	Offensive	Parthasarathi ಷಂಡ
1222	C043023	Tamil	Hate Speech	கைய மட்டும் இல்ல... தலையயும் சேர்த்து வெட்டுவோம்....
1223	C043026	Telugu	Hate Speech	టెక్నాలజీ పెరిగిన కొద్ది సెఫ్టి తగ్గుతుంది హెకర్స్ సులభంగా దోచుకుంటున్నారు
1224	C043027	Tamil	Hate Speech	மனிதர் அனைவரும் சமம். ஆனாலும், இந்த ச௧்௧ிலையர்௧ள் சாதி மத பேதம் இன்றி ௮னைத்து சமூக பெண்களையும் ௧ாம வலை விரித்து ௧ர்ப்பமா௧்கி நடுத்தெருவில் விட்டு விடுகிறார்கள். நாடார், வன்னியர் சமூகத்தினர் மட்டுமே ௧டைசி வரை போராடுகிறார்கள். மற்றவர்கள் தங்களுக்கு உள்ளேயே புழுங்கிக் கொண்டு இருக்கிறார்கள்.
1225	C043034	Tanglish	Hate Speech	Intha padah trailer la engaium thalithu word use panalaya aparam yan antha sathinar pongurenga ithu satharna social massage movie than ungalku vantha retham mathavangaluku vantha? ......
1226	C043037	Roman Telugu	Hate Speech	Naku boothulu vasthunnay chiranjeevi anthati vyakthine vere vallaa laga imitate cheyyamantunav n
1227	C043038	Roman Telugu	Hate Speech	tulsi mokka saar pawan kalyan garu
1228	C043040	Tanglish	Offensive	ok but.......over speed....vandi mattume odavettu teaser koduthuttanga.....ioooo
1229	C043044	Roman Telugu	Hate Speech	priyanka arul mohan gudda chaala sexy vuntadhi dani panga chachi dengali
1230	C043046	Telugu	Hate Speech	రాధాకృష్ణ గారికి దూల తీరింది నభూతొ నా భవిశ్యత్
1231	C043050	Tamil	Offensive	இதையே விஜய் பன்னீருந்தா இன்னேரம் தடை கேட்டுருப்பானுங்க
1232	C043059	Tamil	Hate Speech	பூமி பூமி சுத்தும் சத்தம் ஆழி ஆழி கத்தும் சத்தம் மனிதன் மனிதன் யுத்தச்சத்தம் இதில் எங்கே கேட்கும் குயிலின் சத்தம்..
1233	C043064	Tanglish	Offensive	Oru padam hit ana podhum athea mauv ah idly ah dosiya idiyapama senjiduvanga pola Trend ku vangaya
1234	C043070	Roman Telugu	Hate Speech	Yevaremanukunna CBN gaaru valuable person
1235	C043071	Roman Telugu	Hate Speech	samyukta gaari yakkating super cinema super
1236	C043075	Roman Telugu	Hate Speech	annaaaaa ekkadikellav anna innirojulu pandemic time loo nee postmortem videos tho naa stress anta pogattav especially with saleem review
1237	C043076	Roman Telugu	Hate Speech	open heart with rk interview laloo ippativaraku chesina vaatilo they best idhi raghunandan garu spashtamgaa unnaaru
1238	C043078	Telugu	Hate Speech	పుణ్యాత్ముడుఆయన ఆత్మకు శాంతి కలగాలి
1239	C043079	Tanglish	Hate Speech	Outright disaster much like sketch and vaalu
1240	C043087	Telugu	Hate Speech	విజయ్ దేవరకొండ గురించి చెప్పింది చాలా పర్ఫెక్ట్ గా చెప్పారు మేడమ్
1241	C043091	Tanglish	Hate Speech	Intha commend section la vara comments la ketkum bothu .....sirippa irukku..... 2020 la community ya perukku munnadi vachi perumai padura .....jaadhi veri konda naaikal......fuck off da.....
1242	C043093	Telugu	Hate Speech	ఆది దాని బ్రతుకు...చంద్రబాబు లేకపోతే పార్టీని భూస్థాపితం చేసేది..
1243	C043105	Roman Telugu	Hate Speech	polisollochi ‍yetuku battukuntaaru
1244	C043131	Tanglish	Offensive	Teaser pakumbodhu mokkaiya iruku nenachu ******trailer vera level
1245	C043135	Tanglish	Offensive	Enaka da Edo Ella record dum break pannapotu nu sonniga
1246	C043136	Tanglish	Offensive	Next cm rajini the boss serrupu addi to amaikari Simon puluman
1247	C043137	Tanglish	Offensive	mokka padam, tharuTHALA padam. theatre la paatha kaasu waste uh. six pack lam illa. family pack mattumeh avar vaithullar.Bulgaria kumar ai nambha vendaam.🤣🤣
1248	C043138	Tanglish	Offensive	Innoru nadigar mela visuvasatha kaata THALALAIYA ennda dislike panni asingapaduthuringa #THALADAWW
1249	C043146	Tanglish	Offensive	Who else seen keka bekka keka bekka short flim ...
1250	C043148	Tanglish	Offensive	Idhu Malayalam la mamooty Padam Maari iruke!
1251	C043149	Tanglish	Offensive	Vijay Rajjni ajithellam kullankitta Pitcha vaanganum
1252	C043150	Telugu	Hate Speech	బాబు చాలా‌‌ ఎదిగిపోయాడయ్యాబాబోయ్ ప౦చులు ఎస్తున్నాడు భయ్యా
1253	C043151	Tanglish	Offensive	Dislike Pota Ealarum .... Lusu p___ 🤐
1254	C043154	Roman Telugu	Hate Speech	minor major ani kaadu mind set important major ithe emina chayacha first ii role tisayali
1255	C043156	Roman Telugu	Hate Speech	mamuluga ledhu twist super aha kevvu keka
1256	C043162	Tamil	Hate Speech	சாவுங்கடா....வாழ்த்துக்கள் மோகன் சார்......... உங்களுக்கு வந்த ரத்தம் எங்களுக்கு வந்த தக்காளி சட்னியா
1257	C043163	Tanglish	Hate Speech	Trailer kevalama iruku.stunt kevalamana irukku.aga mott motthuthla intha padamum flop dhan.these actor unfit for cinema.
1258	C043167	Tanglish	Offensive	Asuran Padam koothi mari iruku neega bigil kuda poti podrigala..bigil da
1259	C043168	Roman Telugu	Hate Speech	100% literacy rate unna kerala lo ne janalu gorrelu la unte, migilin rashtrallo unna janalu paristhiti emito...... I feel ashamed being part of this type of public
1260	C043169	Roman Telugu	Hate Speech	Orey adhiga guddha mue
1261	C043173	Tanglish	Offensive	Enna da inum 1m kuda varla 🤣
1262	C043178	Tanglish	Offensive	58k dislike pottavan tha kadasi vasanthuku vekka padanum
1263	C043181	Tanglish	Offensive	Pink la fight lam varaliyae.. aana idhala fight at 1:35
1264	C043182	Roman Telugu	Hate Speech	gudda lo rod dimuptha
1265	C043184	Roman Telugu	Hate Speech	BJP ni lepindi KCR and TRS Ippudu BJP ante ento TRS ki ardam aindi BJP ki chance isthe TRS ne mingesthundi ani
1266	C043185	Roman Telugu	Hate Speech	england match gelichindi viratsky and hardik hrudayaalu gelichaaru anthe
1267	C043186	Kanglish	Hate Speech	Sak sak thika muchrole.. Aathara career change yenagalla laude nan makla hog kelsa nodi
1268	C043190	Roman Telugu	Hate Speech	Eippudu nuvvu yenta chesina janallaki vellina niku minus
1269	C043191	Roman Telugu	Hate Speech	Mundu aa thumbnail thiseyandi please respect players evadu ani ala thumbnails pettakandi
1270	C043192	Tanglish	Offensive	Ethulayachum getup mathama erukkuraru athuthan konjam feel la erukku
1271	C043203	Tanglish	Offensive	Ayya... Enna panni vechirikkaru.. Looks like viswaasam is going to have a tough time
1272	C043207	Tamil	Offensive	மனதின் முதிர்ச்சி ஒளியா இருளா பொறுத்திருந்து பார்ப்போம் வெல்வது யார் என்று பை சைக்கோ.
1273	C043211	Telugu	Hate Speech	నటసింహం నందమూరి బాలయ్య కు తిరుగులేదు Blockbuster pakka జై బాలయ్య జైజై బాలయ్య
1274	C043216	Telugu	Hate Speech	ఈ సాంగ్ 10 సంవత్సరాల తరువాత చూసినా కూడా అదే ఫీల్ ఉంటుంది Heart touching song
1275	C043218	Tamil	Hate Speech	96 ரஜினி சொன்ன பதிவு இருந்தா காட்டுங்கள் எத்தனை தடவை தான் தவறான தகவலை சொல்விங்க
1276	C043219	Tanglish	Offensive	Screen play veramari iruku yedo iruku idula
1277	C043223	Tanglish	Offensive	VISWASAM Movie Pathutu Yarellaam inka Vantheenga ?
1278	C043232	Tanglish	Offensive	antha thenna maram shot pathathum yaaruku yellam AAA padam nyabhagathuku vanthuchu!
1279	C043233	Tanglish	Hate Speech	trialer looks like old movies shit
1280	C043235	Telugu	Hate Speech	పెద్ద పీఠాధిపతి లాగా అందరికి ఆశీర్వాదం ఇస్తున్నాడుగా
1281	C043239	Roman Telugu	Hate Speech	No one can write meaningful songs like you sirme you sir Om Shanti
1282	C043241	Kanglish	Offensive	Nange aaki kastadalli idhene
1283	C043244	Telugu	Hate Speech	మన తెలంగాణలో రాజకీయ నాయకుల జీవితాలు తప్ప ఎవరి జీవితాలు బాగుపడలే
1284	C043251	Tanglish	Offensive	YOUTUBE: IAM hanging on thala trailer PEOPLE: ethu Ku thaa nanga soinum thala fans keta venanuu🤩🤩🤩🤣🤣🤣🤣
1285	C043252	Kannada	Hate Speech	Making ತುಂಬಾ ಚನ್ನಾಗಿದೆ Lyrics Not good
1286	C043255	Telugu	Hate Speech	దీనెమ్మ దీన్ని ఎవడికన్నా చూపింనుంచండ్ర
1287	C043257	Roman Telugu	Hate Speech	Are kojja yeshalu api dad mom ni chudukondiraa
1288	C043265	Roman Telugu	Hate Speech	nuvvu nijamaina heerovi power star lu mega star lu terameeda matrame heerolu nijajeevitamlo vaallu jeerolu
1289	C043266	Roman Telugu	Hate Speech	avnu neenu mimmalni chusanu chaala saarl
1290	C043272	Roman Telugu	Hate Speech	nna nuv chesina help kii vaallaku edho oka china avasaraalaku panikostundi harsha saayi love you anna
1291	C043273	Telugu	Hate Speech	ముందు ముందు స్పష్టం గా బూతులు మాట్లాడేస్తారు ఏమో
1292	C043278	Kanglish	Hate Speech	Promotion madilla guru adke jana bandilla.
1293	C043282	Roman Telugu	Hate Speech	aadoka party vadoka nayakuda villoka kaaryakartalu
1294	C043287	Kannada	Offensive	ಪ್ರಚಾರ ಇಲ್ಲದ ಕಾರಣ ನಮಗೆ ಒಳ್ಳೆಯ ಚಿತ್ರ ನೋಡಲು ಅವಕಾಶ ಆಗಲಿಲ್ಲ.
1295	C043289	Telugu	Hate Speech	తాత నీకు 60 పాప కీ 25యెందీరా మాకు ఈ దరిద్రమ్...?️️️
1296	C043290	Tanglish	Offensive	Teaser pathu kindal panunuvanunga ellam trailer pathutu vaya polakuranunga
1297	C043293	Tanglish	Offensive	Mass na ethanda therikka vedalamanu ketkka kudathu yappade therikka vedanamnu pathu kathukkungada yan thalapathi yannakkuma mass thanda
1298	C043303	Roman Telugu	Hate Speech	super brow nee edupu naaku baagaa nachindi
1299	C043304	Tanglish	Offensive	Pondey vs Thala ....enna vangi kattika poraru pondey.....poruthurunthu parpom
1300	C043306	Roman Telugu	Hate Speech	open heart with shree aarke garu chestunna ee programme ante naaku chaalaa ishtam saar manchi manchi prasnalu vaestuu untaaru saar ee programme nee aapakunda ilaage chestu undaalani korukuntunnanu prati aadivaram eduruchustuu untaam
1301	C043314	Tamil	Hate Speech	அம்மே பேய் பயமா இருக்கு (tamilrockers’ல இருந்து கூட Download பண்ணி பாக்க மாட்டோம். இந்த trailer பாத்த data கூட வீனா போச்சு.)
1302	C043316	Tanglish	Hate Speech	Vellakkaranai tamilnattukulla vitta, sowrashtrakaranaiyum tamilnatukulla vitta, avangalukkellam ethanai pengalai koottikoduthiruppinga ana ippo anda paramparai, penda paramparai nu solringa vekkam illa?
1303	C043323	Roman Telugu	Hate Speech	nuv hero avatavu anna anta style vundhi nilo idhi real mata
1304	C043324	Roman Telugu	Hate Speech	tom hanks gudda kompu kodutar manachigah koduko modda
1305	C043329	Telugu	Hate Speech	వెనక వేసింది కాదు గాని ఎంత ఖర్చు చేస్తున్నాడో చెప్పు అమ్మ
1306	C043330	Kanglish	Hate Speech	Kachada no 1 film...thu nim mukakke...taste ye illla...badkobeku.
1307	C043332	Tamil	Hate Speech	இதுக்கு அப்புறம் நம்ம பொண்ணுங்கள தொடம்னும்பு எண்ணம் குட வராது டா.... செருபல அடிச்சா போல இருக்கும் எந்த படம்..... congratulations Mohan Anna....
1308	C043333	Tanglish	Hate Speech	Ungalukku vera movie kedaikalaya mersal tha kedachutha.........
1309	C043335	Tanglish	Offensive	Irukku theatrela kaadhu javvu pichikira alavukku DTS irukku
1310	C043338	Tamil	Offensive	என் மனசு ஒன்றுதான் உன் மீது ஞாபகம் வான் நிலவு ஒன்றுதான் வான் மீது சத்தியம்... இந்தப் பழைய பாடலின், பீத்தோவன்? ராகம்தான் பிஜியெம்.
1311	C043339	Telugu	Hate Speech	కోహ్లీ కి అనుకులం గా మరియు ఫామ్ లో ఉన్నపుడు 3 icc cups అందించినా ధోని గౌరవంగా కెప్టెన్సీ వదులుకున్నాడుఅందరు రిటైర్మెంట్ తరవాత లెజెండ్స్ అయ్యరు కానీ కోహ్లి క్రికెట్ అడుతునే లెజెండ్ స్థాయీ నీ అందుకున్నాడుకోహ్లీ స్టేయి వాడు కెప్టెన్సీ కోసం ఇలా గొడవపడటం వల్ల ప్రపంచ స్థాయీ అభిమనులున్నా కోహ్లి తానా స్థాయిని తాగించుకున్నవాడు అవ్వుతాడుకోహ్లి winning persentage యెక్కువున్నాIPLకాని
1312	C043342	Tanglish	Offensive	bigil thayrikka vituthu poiii parilunga da
1313	C043347	Roman Telugu	Hate Speech	malli tintaanu antaadu chusava adhi comedy
1314	C043352	Tanglish	Offensive	Iyyya potta pashangala nee mothala veliya vangala aprom aoduthavanuku advis panungla potta
1315	C043353	Roman Telugu	Hate Speech	ee saari prati okkaroo janasena kii mea viluvaina ootu veyandi
1316	C043354	Kanglish	Offensive	Gowda muchole sakku dengbeka bagsi
1317	C043357	Roman Telugu	Hate Speech	okariki jeevitam ivvadam annitikanna entho goppa vishayam tqu bandla ganesh garu
1318	C043360	Tanglish	Hate Speech	aamaii fanskulamm ..alluuuuuuu ...vijaii naa maaaassss
1319	C043376	Tanglish	Offensive	Konjam othinkitu Oti pathunkitu varathu thalaivaru
1320	C043383	Tanglish	Offensive	Bigil pada trailar Vida idhu super ra irrukku
1321	C043388	Tanglish	Hate Speech	Raymond's music mathiri irukee🤔🤔🤔 illa ennaku matum apadi kekuthaa ore kolapama irukee
1322	C043390	Roman Telugu	Hate Speech	neeku asamanti anna tammudu undatam chaalaa chaalaa adrushtavantudivi anna
1323	C043401	Roman Telugu	Hate Speech	abba beautiful couples chuudadaaniki entha santoshamgaa undo andaruu ilah santoshamgaa undaalani korukuntunnanu
1324	C043404	Tamil	Hate Speech	இந்த திரைப்படத்தின் உரையாடல்கள் ஏற்கனவே திரைப்படங்களில் இடம்பெற்றுள்ளது ...\r இந்த திரைப்படம் லைகா தயாரிப்புக்கு தோல்வி அடைந்து விடும்.
1325	C043405	Tanglish	Offensive	Rajiniya crta serupadi kututhutinga....katasi varaikum ipdi tha solitu ura yemathuranga
1326	C043406	Tamil	Hate Speech	நான் திருநெல்வேலி நாடார் பொண்ணு,என்னையும் ஒரு சிறுத்தைகுட்டி காதலித்தது நானும் சற்று ஏமாற பார்த்தேன். அதன் பிறகுதான் தெரிந்தது அவன் காதலித்தது என்னை இல்லை என் முலம் வரும் பணத்தை ....ஒரு நாள் செருப்பால் அடித்தேன் அதன் பிறகு என் பின்னால் வரவில்லை.
1327	C043407	Roman Telugu	Hate Speech	Okka party lo unte neevu correct.change aite ilane untundi
1328	C043413	Kanglish	Offensive	Macha neen badukbeka ???
1329	C043420	Roman Telugu	Hate Speech	Nenu deshanni, nuvvu telanganani shanka nakinchu antunnadu
1330	C043421	Tanglish	Hate Speech	Ipo la Movie story la Hero vararo ilayo pei varuthu
1331	C043423	Roman Telugu	Hate Speech	Raju Garu me pandula gumpulo pakka state party laki kuda techukuni poti cheyandi adangi vedavallara simham single jagan single ga vostadu meku dabidi dibide
1332	C043425	Roman Telugu	Hate Speech	Prabhas ki super jodiarabian bread vastundi
1333	C043427	Tanglish	Offensive	Superstar nu sollikitu matha actors lam vanturathinga, Thalaivar fans kola kaandu la irukom kollama vida maatom
1334	C043429	Tamil	Hate Speech	. நிறைய விசயம் இருக்கும் போலயே வைச்சு செய்ய
1335	C043441	Tanglish	Offensive	Eli romba Val attudhu konjom veratunga Thalaiva
1336	C043442	Roman Telugu	Hate Speech	climax telisikuda chusam ante thats all bikaj of sudheer and rashmi
1337	C043446	Tanglish	Offensive	Dey innum 10mil kudam varalaya 🤣🤣
1338	C043448	Roman Telugu	Hate Speech	hareesh raw garu adiginatlu kaleshwaram project paie cbi inquirey veyali
1339	C043450	Tanglish	Offensive	Thalaivar oada intha vayasukum make up pottalum semmaya irukaraea.... Ipoo irukura actors ivaroda age Ku nadika mudiyuma.....
1340	C043451	Tanglish	Offensive	Jathee vari pudicha thavdiya pasingaluku intha badem oru sarpanem
1341	C043455	Roman Telugu	Hate Speech	sollaapu saroja
1342	C043458	Roman Telugu	Hate Speech	aa sang endira naayana ani samanta kii ayina siggundaali
1343	C043461	Roman Telugu	Hate Speech	ilanti panikimaalina veediyolu chaalaa chusham mitrama puurti veediyo petty unte bagundedi mitrama
1344	C043464	Kanglish	Offensive	First India na America ke compare madtidru alli hangide ingide anta ivaga. India na China compare madtavre nnNav bari compare madtivi vartu namunyaru compare modo hage hogalla
1345	C043469	Tanglish	Offensive	Avan yarunu avane solla maatane aavane solra
1346	C043470	Telugu	Hate Speech	బోరుకొచ్చిన బండి బోరుకొచ్చిన బండిని నడుపుతుంది
1347	C043471	Tanglish	Offensive	Ena cmnt section fulla Jalra Gostingala irukanga
1348	C043479	Roman Telugu	Hate Speech	evaremanna acting loo nter tiger nu minchinavaallu desamlo film industry loo evaruleremo anipistundi
1349	C043480	Tanglish	Offensive	worst ra🤣🤣🤣 Advocate maari nadika sonna ....Thungikittey nadikiren....Oru Gambiramey ila
1350	C043482	Tamil	Hate Speech	போராடுரதே தப்புனா போராடுர சூழ்நிலைய உருவாக்குறதும் தப்புதானே..
1351	C043484	Tanglish	Offensive	Ivaru tha hero mathavanka LA zero va title yosika therila Ivan kuda action king vera pathu ena nadaka pokutho
1352	C043486	Kannada	Offensive	.k. chinnu ಶೋ ಕಚಡಾ ಇಲ್ಲರಿ ಜನ ಹಂಗ ಬರತಾರ
1353	C043488	Kanglish	Hate Speech	igun kaldalli 60 years badkodhe kasta 5000 varsa irtara yakro janara inocentna use madkotira
1354	C043494	Kanglish	Offensive	Bevarsigalige artha aagirbeku bro chenag ugdhideera
1355	C043495	Kannada	Offensive	Parthasarathi ನೀನು ನಂಗ್ ಏನಾದ್ರು ಹುಟ್ಟಿದ್ಯ
1356	C043498	Telugu	Hate Speech	బాల యోగి ఏర్రం నాయుడు లాల్జాన్ బాషా ముగ్గురు చంద్రబాబు తయారు చేసిన లీడర్స్
1357	C043504	Roman Telugu	Hate Speech	Cheyi vadhalara kama pisachi
1358	C043506	Tanglish	Offensive	Dislike pannavan lam kandippa vigay tevudia paiyan fans thaa
1359	C043507	Tamil	Offensive	ரஜினி சாரை பத்தி பேசினா மட்டும்தான் உங்க படத்துக்கு பிரமோஷனும் கிடைக்கும் அதனாலதான் நீங்க டிரைலர் கிண்டல் செய்றாங்க உங்களுக்கெல்லாம் வேற வேலையே இல்லை
1360	C043509	Tanglish	Offensive	She looks like laughing bhuddha statue
1361	C043529	Roman Telugu	Hate Speech	kuu dance raadu anae stage nundi dance ante idhi raa anae range kii vacchaavu johnny anna
1362	C043531	Roman Telugu	Hate Speech	super madam dance chaalaa bagavesaru
1363	C043540	Roman Telugu	Hate Speech	idhi kaadaa kavalsidhijai kcr
1364	C043541	Kanglish	Offensive	Parthasarathi chakka ansuthe ninu . gaandu soolemagne
1365	C043543	Roman Telugu	Hate Speech	Tokka jokes
1366	C043544	Roman Telugu	Hate Speech	edhi ekkadi maas raa mama jai bandla anna
1367	C043545	Roman Telugu	Hate Speech	super brow nae channel 1stime chustunna super veediyo ii content meda akkuva videos cheyy brow channel noo1 avutundi
1368	C043546	Kanglish	Offensive	Sumne irru guru yake kiriku
1369	C043550	Tanglish	Hate Speech	Intha padam yappo pa release aagum?
1370	C043558	Tanglish	Hate Speech	Comments la caste peru solli vazlthukkal sollum.. Anaithu potta pasangalukum vazlthukkal ...🤬🤬🤬
1371	C043567	Kannada	Hate Speech	ನನ್ನ ಪ್ರಕಾರ ಈ ಟೆಲಿಗ್ರಾಂ ಅನ್ನೋ ಆಪ್ ನಲ್ಲಿ ಎಲ್ಲ ಸಿನಿಮಾಗಳ ಲಿಂಕ್ ಹಾಗೂ Hd ಸಿನಿಮಾಗಳು ಸಿಗುತ್ತಿವೆ ಇದನ್ನೂ ನಿಲ್ಲಿಸಿದರೆ ನಿಜವಾಗಿಯೂ ಎಲ್ಲ ಕನ್ನಡ ಸಿನಿಮಾಗಳು ಹಾಗೂ ಬೇರೆ ಸಿನಿಮಾಗಳು ಕೂಡಾ ಬೆಳೆಯುತ್ತದೆ ನನ್ನ ಸ್ನೇಹಿತರು ಕೂಡಾ ಇದೆ ತರಹ ನಿಮ್ಮ ಸಿನಿಮಾ ನೋಡಿದ್ದಾರೆ ಹಾಗೂ ಅವರು ಕೂಡಾ ಬೇರೆ ಅವರಿಗೆ ತುಂಬಾ ಚೆನ್ನಾಗಿ ಇದೆ ನೋಡಿ ಅಂತ ಮೊಬೈಲ್ ಅಲ್ಲಿ ಕಳುಸ್ತಾ ಇದ್ದರೆ ಇದು ನನಗೆ ತುಂಬಾ ಬೇಜಾರಾಗಿದೆ ಆದರೆ ದಿಯಾ ಸಿನೆಮಾ ತುಂಬಾ ಅಂದ್ರೆ ತುಂಬಾ ಚೆನ್ನಾಗಿ ಇದೆ ನನ್ನ ಕಣ್ಣಲಿ ನೀರು ತುಂಬಿದ್ದು ನಿಜ ಅದೀ ಪಾತ್ರ ಹಾಗೂ ದಿಯಾ ಪಾತ್ರ ತುಂಬಾ ಚೆನ್ನಾಗಿ ಮೂಡಿ ಬಂದಿದೆ ನನ್ ಮಾತಾಡಿದ್ದು ಸರಿ ಎನಿಸಿದರೆ ಕಮೆಂಟ್ ಮಾಡಿ ಧನ್ಯವಾದಗಳು
1372	C043578	Tamil	Hate Speech	பெண்ணை அடிமையாக்க நினைக்கும் இந்த படம் தோல்விதான் அடையும்
1373	C043580	Tamil	Hate Speech	அறிவு கெட்ட நாயே ஜெயலலிதா ஒரு இரும்பு பெண்மணியட இறந்தவரை இப்படி கேலியாக படம் போடுவதை விட, உன்,தங்கை, உன் மனைவி,அல்லது, உன் அம்மா இவர்கள் யாரேனும் ஒருவரது மார்பிங் போட்டோவை போட்டால் நல்லா இருக்குமா? யோசித்துப் பாரட. சொரி நாயே,
1374	C043583	Tamil	Offensive	யாரும் தப்பா நினைக்காதீஙக, மற்றவர்களை Copy, copy-னு சொல்லி திற்றவறு, இந்த பட ட்ரைலருக்கு ராஜா சார் பீதோவனுடைய ( Beethovan ) Fur elisa என்ற Piano pieaca [ Tune ] copy பண்ணிருக்காரு. என்னத்த சொல்றதோ !!!
1375	C043586	Roman Telugu	Hate Speech	dattaputrudiki inca siggu raaledu
1376	C043587	Kanglish	Offensive	OMG nange gotte irlilla prajwal hatra istond ide anta
1377	C043591	Tamil	Offensive	ஜாதி மயிரு போங்கடா நீங்களும் உங்க வீட்டு ஜாதி ஜாதி தலைல துக்குறவன் நல்லா இருந்தது சரிதரம் இல்ல தம்பி
1378	C043595	Kanglish	Offensive	Aadu nane broo... Soul naa Replacement maddee... Bere body gee.. Antha aansthidee
1379	C043599	Kanglish	Hate Speech	Dislike madiru Yarantha gotthanBurnel kodro avrige...
1380	C043601	Roman Telugu	Hate Speech	jyosham kaanaa neenu nee mida penchukuni prema goppadi super
1381	C043603	Kannada	Offensive	ಸರಿಯಾದ planning ಇರಬೇಕು. ನಮ್ಮ ರಾಜ್ಯದವರು Business ನಲ್ಲಿ improve ಆಗ್ಬೇಕು.
1382	C043608	Kanglish	Hate Speech	Bari prayojanake barada films nododu Facebook YouTube li comments hodiyodu...yaavalo hudugi siktale anta instagram li search madodo ede Indians hanebaraha dhesha uddara hada hage ayyo
1383	C043615	Tamil	Offensive	படத்துல இந்த story, screenplay, dialog nnu எது எப்படி இருந்தாலும் பரவாயில்லை... நம்ம உதய்யண்ணா நடிச்சு இருக்காப்பல... அதனாலையே படம் மாஸ் கலெக்ஸன் எடுக்கும்... இந்த தர்பார், பட்டாசு எல்லாம் ஓரம் போங்கடா...
1384	C043616	Kanglish	Offensive	Rashmika mandana aunty full stomach burning haa?!!! 🤣🤣🤣
1385	C043617	Tanglish	Hate Speech	Thala n thalapathy rendum perum vituvakalaya
1386	C043618	Telugu	Hate Speech	మీకు తెలియని విషయాలు అంటూ ఉండవా రాజు గారు చాలా చాలా చక్కగా వివరించారు యూ టూబ్లో మీరు చెప్పే వీడియోస్ చూసి పాటించితే చాలు ప్రతి మనిషి హాయిగా ఆనందంగా జీవించ వచ్చు మీరు ఈ సమాజానికి దేవుడు ఇచ్చిన వరం
1387	C043622	Tanglish	Offensive	1:55 Koola gandla eruke superrrrr
1388	C043636	Kanglish	Offensive	Super bro e nayiigulu erodrindane nam desha uddar agilla once again super bro
1389	C043640	Kanglish	Offensive	Hiremath neen full urkondidiya bido
1390	C043643	Tanglish	Offensive	Mokkaiya iruku. Ellam avan seyal and arasaatchi ah copy adikura maatri iruku
1391	C043647	Roman Telugu	Hate Speech	Veedu aadi gaadu maaradu veediki stage cleaning pani ivvandi
1392	C043649	Telugu	Hate Speech	మామఎప్పుడూ gun రెఢీ గా ఉంచుతాడు
1393	C043652	Tanglish	Hate Speech	Happada Oru vazhiya Siva and team thalaiya vitu poitanga
1394	C043655	Roman Telugu	Hate Speech	rip sir atma kii shanti kalagalani korukuntunnanumana desamlo unnadi ilanti badha paarisraamikavettalu saar
1395	C043663	Tanglish	Offensive	Teaser nalla eruku.. aana kerala superstar lal sir vanthu prime minister role athu mattum pudikkale.. avarkku mass performence nadatharthuku ulla role koduthirunthaa nallathaa erukkum
1396	C043666	Tanglish	Offensive	ajith thaathaa un movie nalla illa very very kevalam
1397	C043667	Roman Telugu	Hate Speech	anna nee acting pedda namaskaram
1398	C043680	Tamil	Offensive	செல்வராகவனு ஒரு writer இருந்தான்...சூர்யா அவன சாவடிச்சிட்டான் ...இதுக்கு மன்னிப்பே கிடையாது ...படுபாவிங்கள ...
1399	C043692	Tanglish	Offensive	Adaei idhu Johnny quest music ila ?!?
